(dp0
S'METTS MARK'
p1
(dp2
S'to_messages'
p3
I807
sS'deferral_payments'
p4
S'NaN'
p5
sS'expenses'
p6
I94299
sS'poi'
p7
I00
sS'deferred_income'
p8
g5
sS'email_address'
p9
S'mark.metts@enron.com'
p10
sS'long_term_incentive'
p11
g5
sS'shared_with_poi_n'
p12
cnumpy.core.multiarray
scalar
p13
(cnumpy
dtype
p14
(S'f8'
p15
I0
I1
tp16
Rp17
(I3
S'<'
p18
NNNI-1
I-1
I0
tp19
bS'\x17\xe1\xe2\t($x?'
p20
tp21
Rp22
sS'restricted_stock_deferred'
p23
g5
sS'shared_receipt_with_poi'
p24
I702
sS'loan_advances'
p25
g5
sS'from_messages'
p26
I29
sS'other'
p27
I1740
sS'person_id'
p28
I1
sS'director_fees'
p29
g5
sS'bonus'
p30
I600000
sS'total_stock_value'
p31
I585062
sS'from_poi_to_this_person'
p32
I38
sS'from_this_person_to_poi'
p33
I1
sS'restricted_stock'
p34
I585062
sS'salary'
p35
I365788
sS'total_payments'
p36
I1061827
sS'exercised_stock_options'
p37
g5
sS'finance_1_n'
p38
g13
(g17
S'v\xf7\x9c\xb9a\xa8\xc7\xbf'
p39
tp40
Rp41
sS'from_person_to_poi_ratio_n'
p42
g13
(g17
S',X\xdf\xe1\x8a\xac\xd7\xbf'
p43
tp44
Rp45
sS'finance_2_n'
p46
g13
(g17
S'\xdaKI\xbbe\xba\xdc\xbf'
p47
tp48
Rp49
sS'from_poi_to_person_ratio_n'
p50
g13
(g17
S'\xa1l\x01e[U\xd3?'
p51
tp52
Rp53
ssS'BAXTER JOHN C'
p54
(dp55
g3
g5
sg4
I1295738
sg6
I11200
sg7
I00
sg8
I-1386055
sg9
g5
sg11
I1586055
sg12
g13
(g17
S'm\xd4\xc9Ik\x06\xe4\xbf'
p56
tp57
Rp58
sg23
g5
sg24
g5
sg25
g5
sg26
g5
sg27
I2660303
sg28
I2
sg29
g5
sg30
I1200000
sg31
I10623258
sg32
g5
sg33
g5
sg34
I3942714
sg35
I267102
sg36
I5634343
sg37
I6680544
sg38
g13
(g17
S'(\r\x83\x932\xd3\xcd?'
p59
tp60
Rp61
sg42
g13
(g17
S'\xe0\xa3[D\xbfI\xdb\xbf'
p62
tp63
Rp64
sg46
g13
(g17
S'\x99u\xbd\xcf\xc7\x0e\xfd?'
p65
tp66
Rp67
sg50
g13
(g17
S'D\x06\xb6\xb7{\xc0\xd9\xbf'
p68
tp69
Rp70
ssS'ELLIOTT STEVEN'
p71
(dp72
g3
g5
sg4
g5
sg6
I78552
sg7
I00
sg8
I-400729
sg9
S'steven.elliott@enron.com'
p73
sg11
g5
sg12
g13
(g17
S'm\xd4\xc9Ik\x06\xe4\xbf'
p74
tp75
Rp76
sg23
g5
sg24
g5
sg25
g5
sg26
g5
sg27
I12961
sg28
I3
sg29
g5
sg30
I350000
sg31
I6678735
sg32
g5
sg33
g5
sg34
I1788391
sg35
I170941
sg36
I211725
sg37
I4890344
sg38
g13
(g17
S'\x06\x92\xd8\x1cG\xa5\xae?'
p77
tp78
Rp79
sg42
g13
(g17
S'\xe0\xa3[D\xbfI\xdb\xbf'
p80
tp81
Rp82
sg46
g13
(g17
S'\x15\xf8\xc9\xdb\xeen\xef?'
p83
tp84
Rp85
sg50
g13
(g17
S'D\x06\xb6\xb7{\xc0\xd9\xbf'
p86
tp87
Rp88
ssS'CORDES WILLIAM R'
p89
(dp90
g3
I764
sg4
g5
sg6
g5
sg7
I00
sg8
g5
sg9
S'bill.cordes@enron.com'
p91
sg11
g5
sg12
g13
(g17
S'i\xd3\x88\xe5\xb7\xf6\xe5\xbf'
p92
tp93
Rp94
sg23
g5
sg24
I58
sg25
g5
sg26
I12
sg27
g5
sg28
I4
sg29
g5
sg30
g5
sg31
I1038185
sg32
I10
sg33
I0
sg34
I386335
sg35
g5
sg36
g5
sg37
I651850
sg38
g13
(g17
S'N>\xef\x93[\xa0\xda\xbf'
p95
tp96
Rp97
sg42
g13
(g17
S'V\xaa\x08\xce\xea\xab\xd9\xbf'
p98
tp99
Rp100
sg46
g13
(g17
S'\xe3f\xce0{\xb4\xd9\xbf'
p101
tp102
Rp103
sg50
g13
(g17
S'i\xb0\x16\x01\xf9\xe5\xd6?'
p104
tp105
Rp106
ssS'HANNON KEVIN P'
p107
(dp108
g3
I1045
sg4
g5
sg6
I34039
sg7
I01
sg8
I-3117011
sg9
S'kevin.hannon@enron.com'
p109
sg11
I1617011
sg12
g13
(g17
S'h\xf6\xd8\xae\xe5\x8d\xd3?'
p110
tp111
Rp112
sg23
g5
sg24
I1035
sg25
g5
sg26
I32
sg27
I11350
sg28
I5
sg29
g5
sg30
I1500000
sg31
I6391065
sg32
I32
sg33
I21
sg34
I853064
sg35
I243293
sg36
I288682
sg37
I5538001
sg38
g13
(g17
S'\xa2\x01\xa0;\xdd\x03\xb7?'
p113
tp114
Rp115
sg42
g13
(g17
S'"\xc4\x87\x1e\x81R\xdf?'
p116
tp117
Rp118
sg46
g13
(g17
S'\xe0+\xcc6\x81\x89\xf2?'
p119
tp120
Rp121
sg50
g13
(g17
S'\xbb\xd8\xe1\xc9\x86O\xc1?'
p122
tp123
Rp124
ssS'MORDAUNT KRISTINA M'
p125
(dp126
g3
g5
sg4
g5
sg6
I35018
sg7
I00
sg8
g5
sg9
S'kristina.mordaunt@enron.com'
p127
sg11
g5
sg12
g13
(g17
S'\xe2\x00\r\x9d\xff\xd7\xe7\xbf'
p128
tp129
Rp130
sg23
g5
sg24
g5
sg25
g5
sg26
g5
sg27
I1411
sg28
I6
sg29
g5
sg30
I325000
sg31
I208510
sg32
g5
sg33
g5
sg34
I208510
sg35
I267093
sg36
I628522
sg37
g5
sg38
g13
(g17
S'\xe0\xea\xf4\xb3Z\xe9\xe0\xbf'
p131
tp132
Rp133
sg42
g13
(g17
S'V\xaa\x08\xce\xea\xab\xd9\xbf'
p134
tp135
Rp136
sg46
g13
(g17
S'\x81\xb8:&O\x8d\xe0\xbf'
p137
tp138
Rp139
sg50
g13
(g17
S'Om\x00\r\x8b\x85\xde\xbf'
p140
tp141
Rp142
ssS'MEYER ROCKFORD G'
p143
(dp144
g3
I232
sg4
I1848227
sg6
g5
sg7
I00
sg8
g5
sg9
S'rockford.meyer@enron.com'
p145
sg11
g5
sg12
g13
(g17
S'\xd7\xb1\xe3\xa6q!\xe7\xbf'
p146
tp147
Rp148
sg23
g5
sg24
I22
sg25
g5
sg26
I28
sg27
g5
sg28
I7
sg29
g5
sg30
g5
sg31
I955873
sg32
I0
sg33
I0
sg34
I462384
sg35
g5
sg36
I1848227
sg37
I493489
sg38
g13
(g17
S'\xe4m\xf8\xdd\xf3\x00\xdc\xbf'
p149
tp150
Rp151
sg42
g13
(g17
S'V\xaa\x08\xce\xea\xab\xd9\xbf'
p152
tp153
Rp154
sg46
g13
(g17
S'\xa8\x8b8_C\x16\xdb\xbf'
p155
tp156
Rp157
sg50
g13
(g17
S'Om\x00\r\x8b\x85\xde\xbf'
p158
tp159
Rp160
ssS'MCMAHON JEFFREY'
p161
(dp162
g3
I2355
sg4
g5
sg6
I137108
sg7
I00
sg8
g5
sg9
S'jeffrey.mcmahon@enron.com'
p163
sg11
I694862
sg12
g13
(g17
S'\xc0\xb0G\x11\x7f\x10\xf6?'
p164
tp165
Rp166
sg23
g5
sg24
I2228
sg25
g5
sg26
I48
sg27
I297353
sg28
I8
sg29
g5
sg30
I2600000
sg31
I1662855
sg32
I58
sg33
I26
sg34
I558801
sg35
I370448
sg36
I4099771
sg37
I1104054
sg38
g13
(g17
S'\xcf\xc1\xef\\e_\xbc\xbf'
p167
tp168
Rp169
sg42
g13
(g17
S'\x04\xb4\xd3\x82\xa7\xa5\xb3?'
p170
tp171
Rp172
sg46
g13
(g17
S'\xb3\x8fW\xbb\x92\xe9\xb3\xbf'
p173
tp174
Rp175
sg50
g13
(g17
S'(\x13\xd2\x15\xa1\xa5\xcf?'
p176
tp177
Rp178
ssS'HORTON STANLEY C'
p179
(dp180
g3
I2350
sg4
I3131860
sg6
g5
sg7
I00
sg8
g5
sg9
S'stanley.horton@enron.com'
p181
sg11
g5
sg12
g13
(g17
S'\xa8\x80\xbe\xd6\xf6\xef\xd5?'
p182
tp183
Rp184
sg23
g5
sg24
I1074
sg25
g5
sg26
I1073
sg27
g5
sg28
I9
sg29
g5
sg30
g5
sg31
I7256648
sg32
I44
sg33
I15
sg34
I2046079
sg35
g5
sg36
I3131860
sg37
I5210569
sg38
g13
(g17
S'\n\x95;\x8bn\xf2\xde?'
p185
tp186
Rp187
sg42
g13
(g17
S'\\\x96:\xe8%\xa2\xc9\xbf'
p188
tp189
Rp190
sg46
g13
(g17
S'Z\xe2\xc8\xac5\xc4\xdf?'
p191
tp192
Rp193
sg50
g13
(g17
S'\x92\x9f\\\xc9\x99\xe4\xdb\xbf'
p194
tp195
Rp196
ssS'PIPER GREGORY F'
p197
(dp198
g3
I1238
sg4
I1130036
sg6
I43057
sg7
I00
sg8
I-33333
sg9
S'greg.piper@enron.com'
p199
sg11
g5
sg12
g13
(g17
S'\x183\xa392r\xa5?'
p200
tp201
Rp202
sg23
I-409554
sg24
I742
sg25
g5
sg26
I222
sg27
I778
sg28
I10
sg29
g5
sg30
I400000
sg31
I880290
sg32
I61
sg33
I48
sg34
I409554
sg35
I197091
sg36
I1737629
sg37
I880290
sg38
g13
(g17
S'Kxxu\xa92\xc3\xbf'
p203
tp204
Rp205
sg42
g13
(g17
S'\x16W(-\xc9r\xf5?'
p206
tp207
Rp208
sg46
g13
(g17
S'M\x00B\xf6t\xff\xce\xbf'
p209
tp210
Rp211
sg50
g13
(g17
S'<\x1bS\x063L\xd0\xbf'
p212
tp213
Rp214
ssS'HUMPHREY GENE E'
p215
(dp216
g3
I128
sg4
I2964506
sg6
I4994
sg7
I00
sg8
g5
sg9
S'gene.humphrey@enron.com'
p217
sg11
g5
sg12
g13
(g17
S'\xa8\x1bM\xe19\x99\xe0\xbf'
p218
tp219
Rp220
sg23
g5
sg24
I119
sg25
g5
sg26
I17
sg27
g5
sg28
I11
sg29
g5
sg30
g5
sg31
I2282768
sg32
I10
sg33
I17
sg34
g5
sg35
I130724
sg36
I3100224
sg37
I2282768
sg38
g13
(g17
S'4\x98"\xd0\xe3\xf3\xb8\xbf'
p221
tp222
Rp223
sg42
g13
(g17
S'a\xa5\xf4T\x16\x81\x16@'
p224
tp225
Rp226
sg46
g13
(g17
S'{\x1b\xf4\x94\xe5\x08\xb2?'
p227
tp228
Rp229
sg50
g13
(g17
S'\xc0t|\xaa\xa5\x0c\xb6\xbf'
p230
tp231
Rp232
ssS'UMANOFF ADAM S'
p233
(dp234
g3
I111
sg4
g5
sg6
I53122
sg7
I00
sg8
g5
sg9
S'adam.umanoff@enron.com'
p235
sg11
g5
sg12
g13
(g17
S't\xd7,d1\xd8\xe2\xbf'
p236
tp237
Rp238
sg23
g5
sg24
I41
sg25
g5
sg26
I18
sg27
g5
sg28
I12
sg29
g5
sg30
I788750
sg31
g5
sg32
I12
sg33
I0
sg34
g5
sg35
I288589
sg36
I1130461
sg37
g5
sg38
g13
(g17
S'\x06X\xb0C<\xec\xc8\xbf'
p239
tp240
Rp241
sg42
g13
(g17
S'\xe0\xa3[D\xbfI\xdb\xbf'
p242
tp243
Rp244
sg46
g13
(g17
S'\x8eT\xc2E{H\xe0\xbf'
p245
tp246
Rp247
sg50
g13
(g17
S'oy\xe0$\x8d\x82\xa6\xbf'
p248
tp249
Rp250
ssS'BLACHMAN JEREMY M'
p251
(dp252
g3
I2475
sg4
g5
sg6
I84208
sg7
I00
sg8
g5
sg9
S'jeremy.blachman@enron.com'
p253
sg11
I831809
sg12
g13
(g17
S'\x02*\x99\x87\xb1y\xf7?'
p254
tp255
Rp256
sg23
g5
sg24
I2326
sg25
g5
sg26
I14
sg27
I272
sg28
I13
sg29
g5
sg30
I850000
sg31
I954354
sg32
I25
sg33
I2
sg34
I189041
sg35
I248546
sg36
I2014835
sg37
I765313
sg38
g13
(g17
S'\x82\x06\xa6\\4t\xc3\xbf'
p257
tp258
Rp259
sg42
g13
(g17
S"j'\x85\xcdf\xee\xd8\xbf"
p260
tp261
Rp262
sg46
g13
(g17
S'}(\xae\xef\x11Z\xd1\xbf'
p263
tp264
Rp265
sg50
g13
(g17
S'\x81UL\xa2C\xd8\xe1?'
p266
tp267
Rp268
ssS'SUNDE MARTIN'
p269
(dp270
g3
I2647
sg4
g5
sg6
g5
sg7
I00
sg8
g5
sg9
S'marty.sunde@enron.com'
p271
sg11
I476451
sg12
g13
(g17
S'\xb0\xb3\xbe\xb9\x19\xa6\xfd?'
p272
tp273
Rp274
sg23
g5
sg24
I2565
sg25
g5
sg26
I38
sg27
I111122
sg28
I14
sg29
g5
sg30
I700000
sg31
I698920
sg32
I37
sg33
I13
sg34
I698920
sg35
I257486
sg36
I1545059
sg37
g5
sg38
g13
(g17
S'\xb6%\x9fc=\xee\xdd\xbf'
p275
tp276
Rp277
sg42
g13
(g17
S'5\xbdxA\xb9\x8f\xcf\xbf'
p278
tp279
Rp280
sg46
g13
(g17
S'`\x1b\xc0\xd4\xfe\xfd\xdd\xbf'
p281
tp282
Rp283
sg50
g13
(g17
S'\n\x11\x89\xaa7\xe5\xdf?'
p284
tp285
Rp286
ssS'GIBBS DANA R'
p287
(dp288
g3
I169
sg4
I504610
sg6
g5
sg7
I00
sg8
g5
sg9
S'dana.gibbs@enron.com'
p289
sg11
I461912
sg12
g13
(g17
S'\x19\xef\xc2\xa9\xe0\\\xe3\xbf'
p290
tp291
Rp292
sg23
g5
sg24
I23
sg25
g5
sg26
I12
sg27
g5
sg28
I15
sg29
g5
sg30
g5
sg31
I2218275
sg32
I0
sg33
I0
sg34
g5
sg35
g5
sg36
I966522
sg37
I2218275
sg38
g13
(g17
S'.\xf6\n\x02K<\xb9\xbf'
p293
tp294
Rp295
sg42
g13
(g17
S'\xe0\xa3[D\xbfI\xdb\xbf'
p296
tp297
Rp298
sg46
g13
(g17
S'u\xdc_\xec\xbf\xf1\xad?'
p299
tp300
Rp301
sg50
g13
(g17
S'D\x06\xb6\xb7{\xc0\xd9\xbf'
p302
tp303
Rp304
ssS'LOWRY CHARLES P'
p305
(dp306
g3
g5
sg4
g5
sg6
g5
sg7
I00
sg8
g5
sg9
g5
sg11
g5
sg12
g13
(g17
S'm\xd4\xc9Ik\x06\xe4\xbf'
p307
tp308
Rp309
sg23
I-153686
sg24
g5
sg25
g5
sg26
g5
sg27
g5
sg28
I16
sg29
g5
sg30
g5
sg31
I372205
sg32
g5
sg33
g5
sg34
I153686
sg35
g5
sg36
g5
sg37
I372205
sg38
g13
(g17
S'["\xfeF@H\xc7\xbf'
p310
tp311
Rp312
sg42
g13
(g17
S'\xe0\xa3[D\xbfI\xdb\xbf'
p313
tp314
Rp315
sg46
g13
(g17
S'>rF\xc2\xc6\xf7\xda\xbf'
p316
tp317
Rp318
sg50
g13
(g17
S'D\x06\xb6\xb7{\xc0\xd9\xbf'
p319
tp320
Rp321
ssS'COLWELL WESLEY'
p322
(dp323
g3
I1758
sg4
I27610
sg6
I16514
sg7
I01
sg8
I-144062
sg9
S'wes.colwell@enron.com'
p324
sg11
g5
sg12
g13
(g17
S'\x9b\xdb\xc6E\x86\xb2\xd9?'
p325
tp326
Rp327
sg23
g5
sg24
I1132
sg25
g5
sg26
I40
sg27
I101740
sg28
I17
sg29
g5
sg30
I1200000
sg31
I698242
sg32
I240
sg33
I11
sg34
I698242
sg35
I288542
sg36
I1490344
sg37
g5
sg38
g13
(g17
S'q9\xa2\xb3Jf\xdd\xbf'
p328
tp329
Rp330
sg42
g13
(g17
S'L\xfejQ\xef#\xca\xbf'
p331
tp332
Rp333
sg46
g13
(g17
S'\xa7\x18X\xe1\x99|\xdd\xbf'
p334
tp335
Rp336
sg50
g13
(g17
S'X\x93\xed\xbb\xa2!\x16@'
p337
tp338
Rp339
ssS'MULLER MARK S'
p340
(dp341
g3
I136
sg4
I842924
sg6
g5
sg7
I00
sg8
I-719000
sg9
S's..muller@enron.com'
p342
sg11
I1725545
sg12
g13
(g17
S'\xd9\x95\xc2\xb8\x08&\xe4\xbf'
p343
tp344
Rp345
sg23
g5
sg24
I114
sg25
g5
sg26
I16
sg27
I947
sg28
I18
sg29
g5
sg30
I1100000
sg31
I1416848
sg32
I12
sg33
I0
sg34
I360528
sg35
I251654
sg36
I3202070
sg37
I1056320
sg38
g13
(g17
S'\x02\x85\xde\xc71\x12\xd2\xbf'
p346
tp347
Rp348
sg42
g13
(g17
S'V\xaa\x08\xce\xea\xab\xd9\xbf'
p349
tp350
Rp351
sg46
g13
(g17
S'.u\\\x94\xf3N\xd2\xbf'
p352
tp353
Rp354
sg50
g13
(g17
S'\n\xc7z\xcck\x8e\xd1?'
p355
tp356
Rp357
ssS'JACKSON CHARLENE R'
p358
(dp359
g3
I258
sg4
g5
sg6
I10181
sg7
I00
sg8
g5
sg9
S'charlene.jackson@enron.com'
p360
sg11
g5
sg12
g13
(g17
S'\xba:z\x05\xf8\xa7\xe0\xbf'
p361
tp362
Rp363
sg23
g5
sg24
I117
sg25
g5
sg26
I56
sg27
I2435
sg28
I19
sg29
g5
sg30
I250000
sg31
I725735
sg32
I25
sg33
I19
sg34
I540672
sg35
I288558
sg36
I551174
sg37
I185063
sg38
g13
(g17
S'\x8e\\\xd3_\xa8\x15\xc7\xbf'
p364
tp365
Rp366
sg42
g13
(g17
S'6\xd78!\xeco\x07@'
p367
tp368
Rp369
sg46
g13
(g17
S'\xa8\xf4\x05i\xaa\xad\xda\xbf'
p370
tp371
Rp372
sg50
g13
(g17
S'\xe5\xb3D\xf1u\xc8\xc4\xbf'
p373
tp374
Rp375
ssS'WESTFAHL RICHARD K'
p376
(dp377
g3
g5
sg4
g5
sg6
I51870
sg7
I00
sg8
I-10800
sg9
S'dick.westfahl@enron.com'
p378
sg11
I256191
sg12
g13
(g17
S'm\xd4\xc9Ik\x06\xe4\xbf'
p379
tp380
Rp381
sg23
g5
sg24
g5
sg25
g5
sg26
g5
sg27
I401130
sg28
I20
sg29
g5
sg30
g5
sg31
I384930
sg32
g5
sg33
g5
sg34
I384930
sg35
I63744
sg36
I762135
sg37
g5
sg38
g13
(g17
S'((\x19\xd9p\x0e\xc8\xbf'
p382
tp383
Rp384
sg42
g13
(g17
S'\xe0\xa3[D\xbfI\xdb\xbf'
p385
tp386
Rp387
sg46
g13
(g17
S'\xfdK\xce\x95\xda\xe2\xde\xbf'
p388
tp389
Rp390
sg50
g13
(g17
S'D\x06\xb6\xb7{\xc0\xd9\xbf'
p391
tp392
Rp393
ssS'WALTERS GARETH W'
p394
(dp395
g3
g5
sg4
I53625
sg6
I33785
sg7
I00
sg8
g5
sg9
g5
sg11
g5
sg12
g13
(g17
S'\xe2\x00\r\x9d\xff\xd7\xe7\xbf'
p396
tp397
Rp398
sg23
g5
sg24
g5
sg25
g5
sg26
g5
sg27
g5
sg28
I21
sg29
g5
sg30
g5
sg31
I1030329
sg32
g5
sg33
g5
sg34
g5
sg35
g5
sg36
I87410
sg37
I1030329
sg38
g13
(g17
S'\xe1`L\xb8dI\xd8\xbf'
p399
tp400
Rp401
sg42
g13
(g17
S'V\xaa\x08\xce\xea\xab\xd9\xbf'
p402
tp403
Rp404
sg46
g13
(g17
S'\xdd\x1c[{\x97W\xd7\xbf'
p405
tp406
Rp407
sg50
g13
(g17
S'Om\x00\r\x8b\x85\xde\xbf'
p408
tp409
Rp410
ssS'WALLS JR ROBERT H'
p411
(dp412
g3
I671
sg4
g5
sg6
I50936
sg7
I00
sg8
g5
sg9
S'rob.walls@enron.com'
p413
sg11
I540751
sg12
g13
(g17
S'@\xc2JZ\xf1\xdf\xe0\xbf'
p414
tp415
Rp416
sg23
g5
sg24
I215
sg25
g5
sg26
I146
sg27
I2
sg28
I22
sg29
g5
sg30
I850000
sg31
I5898997
sg32
I17
sg33
I0
sg34
I1552453
sg35
I357091
sg36
I1798780
sg37
I4346544
sg38
g13
(g17
S'\xda\xf286\x1a\xa1\xd5?'
p417
tp418
Rp419
sg42
g13
(g17
S'V\xaa\x08\xce\xea\xab\xd9\xbf'
p420
tp421
Rp422
sg46
g13
(g17
S'P\xb7oj\xe7\xa5\xd5?'
p423
tp424
Rp425
sg50
g13
(g17
S'&\xfd\xf8\xb8\xb7\x0e\xd7\xbf'
p426
tp427
Rp428
ssS'KITCHEN LOUISE'
p429
(dp430
g3
I8305
sg4
g5
sg6
I5774
sg7
I00
sg8
g5
sg9
S'louise.kitchen@enron.com'
p431
sg11
g5
sg12
g13
(g17
S'-U\xe3\xbc\xc8g\x05@'
p432
tp433
Rp434
sg23
g5
sg24
I3669
sg25
g5
sg26
I1728
sg27
I93925
sg28
I23
sg29
g5
sg30
I3100000
sg31
I547143
sg32
I251
sg33
I194
sg34
I466101
sg35
I271442
sg36
I3471141
sg37
I81042
sg38
g13
(g17
S'\x89\xc7iql\x97\xc4\xbf'
p435
tp436
Rp437
sg42
g13
(g17
S'\xe4}5\xdd\xaak\xe4?'
p438
tp439
Rp440
sg46
g13
(g17
S'\x12\xed>{^\xeb\xd6\xbf'
p441
tp442
Rp443
sg50
g13
(g17
S'\x18%pp\x0b\xc1\xd4\xbf'
p444
tp445
Rp446
ssS'CHAN RONNIE'
p447
(dp448
g3
g5
sg4
g5
sg6
g5
sg7
I00
sg8
I-98784
sg9
g5
sg11
g5
sg12
g13
(g17
S'm\xd4\xc9Ik\x06\xe4\xbf'
p449
tp450
Rp451
sg23
I-32460
sg24
g5
sg25
g5
sg26
g5
sg27
g5
sg28
I24
sg29
I98784
sg30
g5
sg31
g5
sg32
g5
sg33
g5
sg34
I32460
sg35
g5
sg36
g5
sg37
g5
sg38
g13
(g17
S'\xa8]\xd6&k\xc0\xc9\xbf'
p452
tp453
Rp454
sg42
g13
(g17
S'\xe0\xa3[D\xbfI\xdb\xbf'
p455
tp456
Rp457
sg46
g13
(g17
S'\xbf\xfc\xf99\xd8\x06\xe1\xbf'
p458
tp459
Rp460
sg50
g13
(g17
S'D\x06\xb6\xb7{\xc0\xd9\xbf'
p461
tp462
Rp463
ssS'BELFER ROBERT'
p464
(dp465
g3
g5
sg4
S'NaN'
p466
sg6
I3285
sg7
I00
sg8
I-102500
sg9
g5
sg11
g466
sg12
g13
(g17
S'm\xd4\xc9Ik\x06\xe4\xbf'
p467
tp468
Rp469
sg23
I-44093
sg24
g5
sg25
g466
sg26
g5
sg27
g466
sg28
I25
sg29
I102500
sg30
g466
sg31
g466
sg32
g5
sg33
g5
sg34
I44093
sg35
g466
sg36
I3285
sg37
g466
sg38
g13
(g17
S'4\xf3\xb3\x06\xec\xb8\xc9\xbf'
p470
tp471
Rp472
sg42
g13
(g17
S'\xe0\xa3[D\xbfI\xdb\xbf'
p473
tp474
Rp475
sg46
g13
(g17
S'\r\xb7\xe3\xf6\xa8\xfb\xe0\xbf'
p476
tp477
Rp478
sg50
g13
(g17
S'D\x06\xb6\xb7{\xc0\xd9\xbf'
p479
tp480
Rp481
ssS'SHANKMAN JEFFREY A'
p482
(dp483
g3
I3221
sg4
g5
sg6
I178979
sg7
I00
sg8
g5
sg9
S'jeffrey.shankman@enron.com'
p484
sg11
I554422
sg12
g13
(g17
S'\xa3(\xac\xf2\x0c\xca\xed?'
p485
tp486
Rp487
sg23
g5
sg24
I1730
sg25
g5
sg26
I2681
sg27
I1191
sg28
I26
sg29
g5
sg30
I2000000
sg31
I2072035
sg32
I94
sg33
I83
sg34
I630137
sg35
I304110
sg36
I3038702
sg37
I1441898
sg38
g13
(g17
S'\x03\x9a\x83@\xb1\x8e\xba\xbf'
p488
tp489
Rp490
sg42
g13
(g17
S'\xe0\xa2\x1a@\xfc\xee\xe7?'
p491
tp492
Rp493
sg46
g13
(g17
S'\x1f\x95\xed\x06\x0f\xc9\x7f\xbf'
p494
tp495
Rp496
sg50
g13
(g17
S'\x82\x1cP\r\xa7\x8b\xd8\xbf'
p497
tp498
Rp499
ssS'WODRASKA JOHN'
p500
(dp501
g3
g5
sg4
g5
sg6
g5
sg7
I00
sg8
g5
sg9
S'john.wodraska@enron.com'
p502
sg11
g5
sg12
g13
(g17
S'm\xd4\xc9Ik\x06\xe4\xbf'
p503
tp504
Rp505
sg23
g5
sg24
g5
sg25
g5
sg26
g5
sg27
I189583
sg28
I27
sg29
g5
sg30
g5
sg31
g5
sg32
g5
sg33
g5
sg34
g5
sg35
g5
sg36
I189583
sg37
g5
sg38
g13
(g17
S'\n\rE\xa8\xf5\x85\xc9\xbf'
p506
tp507
Rp508
sg42
g13
(g17
S'\xe0\xa3[D\xbfI\xdb\xbf'
p509
tp510
Rp511
sg46
g13
(g17
S'P\xc5!\xf0\xe5\x15\xe1\xbf'
p512
tp513
Rp514
sg50
g13
(g17
S'D\x06\xb6\xb7{\xc0\xd9\xbf'
p515
tp516
Rp517
ssS'BERGSIEKER RICHARD P'
p518
(dp519
g3
I383
sg4
g5
sg6
I59175
sg7
I00
sg8
I-485813
sg9
S'rick.bergsieker@enron.com'
p520
sg11
I180250
sg12
g13
(g17
S'\tS\x9dy\x94J\xe0\xbf'
p521
tp522
Rp523
sg23
g5
sg24
I233
sg25
g5
sg26
I59
sg27
I427316
sg28
I28
sg29
g5
sg30
I250000
sg31
I659249
sg32
I4
sg33
I0
sg34
I659249
sg35
I187922
sg36
I618850
sg37
g5
sg38
g13
(g17
S'\x0b\x96E\xec\xdaO\xde\xbf'
p524
tp525
Rp526
sg42
g13
(g17
S'V\xaa\x08\xce\xea\xab\xd9\xbf'
p527
tp528
Rp529
sg46
g13
(g17
S'\x86\xa8\xee*0b\xde\xbf'
p530
tp531
Rp532
sg50
g13
(g17
S'\x8d\xfd\xb9u\xf5,\xda\xbf'
p533
tp534
Rp535
ssS'URQUHART JOHN A'
p536
(dp537
g3
g5
sg4
g5
sg6
I228656
sg7
I00
sg8
I-36666
sg9
g5
sg11
g5
sg12
g13
(g17
S'm\xd4\xc9Ik\x06\xe4\xbf'
p538
tp539
Rp540
sg23
g5
sg24
g5
sg25
g5
sg26
g5
sg27
g5
sg28
I29
sg29
I36666
sg30
g5
sg31
g5
sg32
g5
sg33
g5
sg34
g5
sg35
g5
sg36
I228656
sg37
g5
sg38
g13
(g17
S')C\x84/\xbd\xd5\xc9\xbf'
p541
tp542
Rp543
sg42
g13
(g17
S'\xe0\xa3[D\xbfI\xdb\xbf'
p544
tp545
Rp546
sg46
g13
(g17
S'\xbdW,a9-\xe1\xbf'
p547
tp548
Rp549
sg50
g13
(g17
S'D\x06\xb6\xb7{\xc0\xd9\xbf'
p550
tp551
Rp552
ssS'BIBI PHILIPPE A'
p553
(dp554
g3
I1607
sg4
g5
sg6
I38559
sg7
I00
sg8
g5
sg9
S'philippe.bibi@enron.com'
p555
sg11
I369721
sg12
g13
(g17
S'\xea\x04\x91j\nv\xe3?'
p556
tp557
Rp558
sg23
g5
sg24
I1336
sg25
g5
sg26
I40
sg27
I425688
sg28
I30
sg29
g5
sg30
I1000000
sg31
I1843816
sg32
I23
sg33
I8
sg34
I378082
sg35
I213625
sg36
I2047593
sg37
I1465734
sg38
g13
(g17
S'\xea[\x16{\x02\xd8\xcb\xbf'
p559
tp560
Rp561
sg42
g13
(g17
S'Z\xcc\x1cJ\xa3J\xcf\xbf'
p562
tp563
Rp564
sg46
g13
(g17
S'M\xaa\x11l\x13\xc0\xcd\xbf'
p565
tp566
Rp567
sg50
g13
(g17
S'\xd0s\xcdD@Z\xb9?'
p568
tp569
Rp570
ssS'RIEKER PAULA H'
p571
(dp572
g3
I1328
sg4
I214678
sg6
I33271
sg7
I01
sg8
I-100000
sg9
S'paula.rieker@enron.com'
p573
sg11
g5
sg12
g13
(g17
S'\xb4\x83\x13\x99\xc32\xe0?'
p574
tp575
Rp576
sg23
g5
sg24
I1258
sg25
g5
sg26
I82
sg27
I1950
sg28
I31
sg29
g5
sg30
I700000
sg31
I1918887
sg32
I35
sg33
I48
sg34
I283649
sg35
I249201
sg36
I1099100
sg37
I1635238
sg38
g13
(g17
S'0\x82c$\x83\x81\xbd\xbf'
p577
tp578
Rp579
sg42
g13
(g17
S'Cj:\xb9O\x88\xf3?'
p580
tp581
Rp582
sg46
g13
(g17
S'\xc7]\x8f\x8f\xfc\x94\xa6\xbf'
p583
tp584
Rp585
sg50
g13
(g17
S'\xb3\x11\xb8P\xbb!\xc6\xbf'
p586
tp587
Rp588
ssS'WHALEY DAVID A'
p589
(dp590
g3
g5
sg4
g5
sg6
g5
sg7
I00
sg8
g5
sg9
g5
sg11
g5
sg12
g13
(g17
S'm\xd4\xc9Ik\x06\xe4\xbf'
p591
tp592
Rp593
sg23
g5
sg24
g5
sg25
g5
sg26
g5
sg27
g5
sg28
I32
sg29
g5
sg30
g5
sg31
I98718
sg32
g5
sg33
g5
sg34
g5
sg35
g5
sg36
g5
sg37
I98718
sg38
g13
(g17
S'f*\r\xb5aC\xc9\xbf'
p594
tp595
Rp596
sg42
g13
(g17
S'\xe0\xa3[D\xbfI\xdb\xbf'
p597
tp598
Rp599
sg46
g13
(g17
S'\xb3V\xf5\xf5\xe2[\xe0\xbf'
p600
tp601
Rp602
sg50
g13
(g17
S'D\x06\xb6\xb7{\xc0\xd9\xbf'
p603
tp604
Rp605
ssS'BECK SALLY W'
p606
(dp607
g3
I7315
sg4
g5
sg6
I37172
sg7
I00
sg8
g5
sg9
S'sally.beck@enron.com'
p608
sg11
g5
sg12
g13
(g17
S'_\xe9c\x16P\xfb\xfb?'
p609
tp610
Rp611
sg23
g5
sg24
I2639
sg25
g5
sg26
I4343
sg27
I566
sg28
I33
sg29
g5
sg30
I700000
sg31
I126027
sg32
I144
sg33
I386
sg34
I126027
sg35
I231330
sg36
I969068
sg37
g5
sg38
g13
(g17
S'V\xee\x1c\xf03\xb7\xc8\xbf'
p612
tp613
Rp614
sg42
g13
(g17
S' 4\xa1\xfeJ\xa7\xff?'
p615
tp616
Rp617
sg46
g13
(g17
S'\xa4S`\xa1\xda\xe2\xdf\xbf'
p618
tp619
Rp620
sg50
g13
(g17
S'A\xba\\\x12n\x9c\xd8\xbf'
p621
tp622
Rp623
ssS'HAUG DAVID L'
p624
(dp625
g3
I573
sg4
g5
sg6
I475
sg7
I00
sg8
g5
sg9
S'david.haug@enron.com'
p626
sg11
g5
sg12
g13
(g17
S"\xce\x9a\xa5\xf6W'\xd1\xbf"
p627
tp628
Rp629
sg23
g5
sg24
I471
sg25
g5
sg26
I19
sg27
g5
sg28
I34
sg29
g5
sg30
g5
sg31
I2217299
sg32
I4
sg33
I7
sg34
I2217299
sg35
g5
sg36
I475
sg37
g5
sg38
g13
(g17
S'R\xd8\xdb\x02\x0f:\xd9\xbf'
p630
tp631
Rp632
sg42
g13
(g17
S'[\x98\xc9\x8d\xfa\x18\x91\xbf'
p633
tp634
Rp635
sg46
g13
(g17
S'J]Z\xde\xd6j\xd8\xbf'
p636
tp637
Rp638
sg50
g13
(g17
S'_\xdc\xd4\x0e\xad\x06\xd1\xbf'
p639
tp640
Rp641
ssS'ECHOLS JOHN B'
p642
(dp643
g3
g5
sg4
g5
sg6
I21530
sg7
I00
sg8
g5
sg9
S'john.echols@enron.com'
p644
sg11
I2234774
sg12
g13
(g17
S'm\xd4\xc9Ik\x06\xe4\xbf'
p645
tp646
Rp647
sg23
g5
sg24
g5
sg25
g5
sg26
g5
sg27
I53775
sg28
I35
sg29
g5
sg30
I200000
sg31
I1008941
sg32
g5
sg33
g5
sg34
I407503
sg35
I182245
sg36
I2692324
sg37
I601438
sg38
g13
(g17
S'"3k]\x1f\xb9\xc3\xbf'
p648
tp649
Rp650
sg42
g13
(g17
S'\xe0\xa3[D\xbfI\xdb\xbf'
p651
tp652
Rp653
sg46
g13
(g17
S'cZ\xef\x13r\xa9\xd2\xbf'
p654
tp655
Rp656
sg50
g13
(g17
S'D\x06\xb6\xb7{\xc0\xd9\xbf'
p657
tp658
Rp659
ssS'MENDELSOHN JOHN'
p660
(dp661
g3
g5
sg4
g5
sg6
I148
sg7
I00
sg8
I-103750
sg9
g5
sg11
g5
sg12
g13
(g17
S'm\xd4\xc9Ik\x06\xe4\xbf'
p662
tp663
Rp664
sg23
g5
sg24
g5
sg25
g5
sg26
g5
sg27
g5
sg28
I36
sg29
I103750
sg30
g5
sg31
g5
sg32
g5
sg33
g5
sg34
g5
sg35
g5
sg36
I148
sg37
g5
sg38
g13
(g17
S">b\x1a'\x01\xd5\xc9\xbf"
p665
tp666
Rp667
sg42
g13
(g17
S'\xe0\xa3[D\xbfI\xdb\xbf'
p668
tp669
Rp670
sg46
g13
(g17
S"'\xd2\xf4\xb9\xd4#\xe1\xbf"
p671
tp672
Rp673
sg50
g13
(g17
S'D\x06\xb6\xb7{\xc0\xd9\xbf'
p674
tp675
Rp676
ssS'HICKERSON GARY J'
p677
(dp678
g3
I1320
sg4
g5
sg6
I98849
sg7
I00
sg8
g5
sg9
S'gary.hickerson@enron.com'
p679
sg11
I69223
sg12
g13
(g17
S'\xa3\xdfJ\x13\x91P\xc5?'
p680
tp681
Rp682
sg23
g5
sg24
I900
sg25
g5
sg26
I27
sg27
I1936
sg28
I37
sg29
g5
sg30
I1700000
sg31
I441096
sg32
I40
sg33
I1
sg34
I441096
sg35
I211788
sg36
I2081796
sg37
g5
sg38
g13
(g17
S'\xc9\x84`\xce\xe8\xd9\xdd\xbf'
p683
tp684
Rp685
sg42
g13
(g17
S'\xfb\xa0\x9a[V%\xd8\xbf'
p686
tp687
Rp688
sg46
g13
(g17
S'\xa56q\xf0\xcb*\xde\xbf'
p689
tp690
Rp691
sg50
g13
(g17
S'\x1a\x80\x1f\n\x9f\x1c\xf0?'
p692
tp693
Rp694
ssS'CLINE KENNETH W'
p695
(dp696
g3
g5
sg4
g5
sg6
g5
sg7
I00
sg8
g5
sg9
g5
sg11
g5
sg12
g13
(g17
S'm\xd4\xc9Ik\x06\xe4\xbf'
p697
tp698
Rp699
sg23
I-472568
sg24
g5
sg25
g5
sg26
g5
sg27
g5
sg28
I38
sg29
g5
sg30
g5
sg31
I189518
sg32
g5
sg33
g5
sg34
I662086
sg35
g5
sg36
g5
sg37
g5
sg38
g13
(g17
S"\xdb\xf9\x06\xb1'1\xc8\xbf"
p700
tp701
Rp702
sg42
g13
(g17
S'\xe0\xa3[D\xbfI\xdb\xbf'
p703
tp704
Rp705
sg46
g13
(g17
S'N\x10\xd6\x91\xe5\xa9\xdd\xbf'
p706
tp707
Rp708
sg50
g13
(g17
S'D\x06\xb6\xb7{\xc0\xd9\xbf'
p709
tp710
Rp711
ssS'LEWIS RICHARD'
p712
(dp713
g3
I952
sg4
g5
sg6
g5
sg7
I00
sg8
g5
sg9
S'richard.lewis@enron.com'
p714
sg11
g5
sg12
g13
(g17
S'6\xec\xc6\x18\xa4,l?'
p715
tp716
Rp717
sg23
g5
sg24
I739
sg25
g5
sg26
I26
sg27
g5
sg28
I39
sg29
g5
sg30
g5
sg31
I850477
sg32
I10
sg33
I0
sg34
g5
sg35
g5
sg36
g5
sg37
I850477
sg38
g13
(g17
S'\x19\xfdf\xd6\xf9@\xda\xbf'
p718
tp719
Rp720
sg42
g13
(g17
S'V\xaa\x08\xce\xea\xab\xd9\xbf'
p721
tp722
Rp723
sg46
g13
(g17
S'\x0ew\xeb\xf4\rO\xd9\xbf'
p724
tp725
Rp726
sg50
g13
(g17
S'\x98/M\x06\x11w\xb7\xbf'
p727
tp728
Rp729
ssS'HAYES ROBERT E'
p730
(dp731
g3
I504
sg4
I7961
sg6
g5
sg7
I00
sg8
g5
sg9
S'robert.hayes@enron.com'
p732
sg11
g5
sg12
g13
(g17
S'\xa1\xcba\xc1\xd9\x95\xe2\xbf'
p733
tp734
Rp735
sg23
g5
sg24
I50
sg25
g5
sg26
I12
sg27
g5
sg28
I40
sg29
g5
sg30
g5
sg31
I151418
sg32
I16
sg33
I0
sg34
I151418
sg35
g5
sg36
I7961
sg37
g5
sg38
g13
(g17
S'\t\xe2\t\xce\x96v\xc9\xbf'
p736
tp737
Rp738
sg42
g13
(g17
S'\xe0\xa3[D\xbfI\xdb\xbf'
p739
tp740
Rp741
sg46
g13
(g17
S'\xb5\x97\xc1R<\xa8\xe0\xbf'
p742
tp743
Rp744
sg50
g13
(g17
S'\xe8\xe7}n\xd8\x1f\xd4?'
p745
tp746
Rp747
ssS'MCCARTY DANNY J'
p748
(dp749
g3
I1433
sg4
g5
sg6
g5
sg7
I00
sg8
g5
sg9
S'danny.mccarty@enron.com'
p750
sg11
g5
sg12
g13
(g17
S'\xce\x00\x14\x94\r\x97\xc5\xbf'
p751
tp752
Rp753
sg23
g5
sg24
I508
sg25
g5
sg26
I215
sg27
g5
sg28
I41
sg29
g5
sg30
g5
sg31
I758931
sg32
I25
sg33
I2
sg34
I94556
sg35
g5
sg36
g5
sg37
I664375
sg38
g13
(g17
S'!jl\xdd\xc9\xb8\xc5\xbf'
p754
tp755
Rp756
sg42
g13
(g17
S'b\x7f\x1am\xae7\xd7\xbf'
p757
tp758
Rp759
sg46
g13
(g17
S'\x02\x01\x9d#\xe9k\xd6\xbf'
p760
tp761
Rp762
sg50
g13
(g17
S'COI\xc0D\xc0\xd5\xbf'
p763
tp764
Rp765
ssS'KOPPER MICHAEL J'
p766
(dp767
g3
g5
sg4
g5
sg6
I118134
sg7
I01
sg8
g5
sg9
S'michael.kopper@enron.com'
p768
sg11
I602671
sg12
g13
(g17
S'm\xd4\xc9Ik\x06\xe4\xbf'
p769
tp770
Rp771
sg23
g5
sg24
g5
sg25
g5
sg26
g5
sg27
I907502
sg28
I42
sg29
g5
sg30
I800000
sg31
I985032
sg32
g5
sg33
g5
sg34
I985032
sg35
I224305
sg36
I2652612
sg37
g5
sg38
g13
(g17
S'\x02\x83\x11\x80\x8e\x9d\xc4\xbf'
p772
tp773
Rp774
sg42
g13
(g17
S'\xe0\xa3[D\xbfI\xdb\xbf'
p775
tp776
Rp777
sg46
g13
(g17
S'\xc7\x1b\x86\x90\xde\xeb\xd7\xbf'
p778
tp779
Rp780
sg50
g13
(g17
S'D\x06\xb6\xb7{\xc0\xd9\xbf'
p781
tp782
Rp783
ssS'LEFF DANIEL P'
p784
(dp785
g3
I2822
sg4
g5
sg6
g5
sg7
I00
sg8
g5
sg9
S'dan.leff@enron.com'
p786
sg11
I1387399
sg12
g13
(g17
S'\xb7)\xd8\xc0\xf0t\xfc?'
p787
tp788
Rp789
sg23
g5
sg24
I2672
sg25
g5
sg26
I63
sg27
I3083
sg28
I43
sg29
g5
sg30
I1000000
sg31
I360528
sg32
I67
sg33
I14
sg34
I360528
sg35
I273746
sg36
I2664228
sg37
g5
sg38
g13
(g17
S'!\x13\x01cQ\x04\xc7\xbf'
p790
tp791
Rp792
sg42
g13
(g17
S'\xcbZ\xbd\xd7L\xa3\xc9\xbf'
p793
tp794
Rp795
sg46
g13
(g17
S'\xa1GX[>P\xdc\xbf'
p796
tp797
Rp798
sg50
g13
(g17
S'\xa7\xbe#\xb5\x08\xae\xc5?'
p799
tp800
Rp801
ssS'LAVORATO JOHN J'
p802
(dp803
g3
I7259
sg4
g5
sg6
I49537
sg7
I00
sg8
g5
sg9
S'john.lavorato@enron.com'
p804
sg11
I2035380
sg12
g13
(g17
S'\xa1 \xaf\x80\x1a%\n@'
p805
tp806
Rp807
sg23
g5
sg24
I3962
sg25
g5
sg26
I2585
sg27
I1552
sg28
I44
sg29
g5
sg30
I8000000
sg31
I5167144
sg32
I528
sg33
I411
sg34
I1008149
sg35
I339288
sg36
I10425757
sg37
I4158995
sg38
g13
(g17
S'\x92\xd3\xd3\xf8\x80\xa9\xe0?'
p808
tp809
Rp810
sg42
g13
(g17
S'\xa5+\xe7\x9d\xc4\x16\xf6?'
p811
tp812
Rp813
sg46
g13
(g17
S'\x0bl\x95w\xd2\x90\xdb?'
p814
tp815
Rp816
sg50
g13
(g17
S'\x83\x1b\xfaA\x96m\xd1\xbf'
p817
tp818
Rp819
ssS'BERBERIAN DAVID'
p820
(dp821
g3
g5
sg4
g5
sg6
I11892
sg7
I00
sg8
g5
sg9
S'david.berberian@enron.com'
p822
sg11
g5
sg12
g13
(g17
S'\xe2\x00\r\x9d\xff\xd7\xe7\xbf'
p823
tp824
Rp825
sg23
g5
sg24
g5
sg25
g5
sg26
g5
sg27
g5
sg28
I45
sg29
g5
sg30
g5
sg31
I2493616
sg32
g5
sg33
g5
sg34
I869220
sg35
I216582
sg36
I228474
sg37
I1624396
sg38
g13
(g17
S'\x94\xb5\x1f\xfd\xc9Y\xcb\xbf'
p826
tp827
Rp828
sg42
g13
(g17
S'V\xaa\x08\xce\xea\xab\xd9\xbf'
p829
tp830
Rp831
sg46
g13
(g17
S'Z\x1f\x88\xd1\xe8\x87\xc9\xbf'
p832
tp833
Rp834
sg50
g13
(g17
S'Om\x00\r\x8b\x85\xde\xbf'
p835
tp836
Rp837
ssS'DETMERING TIMOTHY J'
p838
(dp839
g3
g5
sg4
I875307
sg6
I52255
sg7
I00
sg8
I-775241
sg9
S'timothy.detmering@enron.com'
p840
sg11
I415657
sg12
g13
(g17
S'm\xd4\xc9Ik\x06\xe4\xbf'
p841
tp842
Rp843
sg23
I-315068
sg24
g5
sg25
g5
sg26
g5
sg27
I1105
sg28
I46
sg29
g5
sg30
I425000
sg31
I2027865
sg32
g5
sg33
g5
sg34
I315068
sg35
I210500
sg36
I1204583
sg37
I2027865
sg38
g13
(g17
S'\xab\xccM`\xbe\xcf\xb8\xbf'
p844
tp845
Rp846
sg42
g13
(g17
S'\xe0\xa3[D\xbfI\xdb\xbf'
p847
tp848
Rp849
sg46
g13
(g17
S'z\xa5\x0f\x1e\xcfq\xb2?'
p850
tp851
Rp852
sg50
g13
(g17
S'D\x06\xb6\xb7{\xc0\xd9\xbf'
p853
tp854
Rp855
ssS'WAKEHAM JOHN'
p856
(dp857
g3
g5
sg4
g5
sg6
I103773
sg7
I00
sg8
g5
sg9
g5
sg11
g5
sg12
g13
(g17
S'm\xd4\xc9Ik\x06\xe4\xbf'
p858
tp859
Rp860
sg23
g5
sg24
g5
sg25
g5
sg26
g5
sg27
g5
sg28
I47
sg29
I109298
sg30
g5
sg31
g5
sg32
g5
sg33
g5
sg34
g5
sg35
g5
sg36
I213071
sg37
g5
sg38
g13
(g17
S'@\x86h\x80\xce\xd6\xc9\xbf'
p861
tp862
Rp863
sg42
g13
(g17
S'\xe0\xa3[D\xbfI\xdb\xbf'
p864
tp865
Rp866
sg46
g13
(g17
S'\xeb4\xdc\xf0\xa92\xe1\xbf'
p867
tp868
Rp869
sg50
g13
(g17
S'D\x06\xb6\xb7{\xc0\xd9\xbf'
p870
tp871
Rp872
ssS'POWERS WILLIAM'
p873
(dp874
g3
I653
sg4
g5
sg6
g5
sg7
I00
sg8
I-17500
sg9
S'ken.powers@enron.com'
p875
sg11
g5
sg12
g13
(g17
S'\xfe\x19\xbbp\xf6\xad\xe3\xbf'
p876
tp877
Rp878
sg23
g5
sg24
I12
sg25
g5
sg26
I26
sg27
g5
sg28
I48
sg29
I17500
sg30
g5
sg31
g5
sg32
I0
sg33
I0
sg34
g5
sg35
g5
sg36
g5
sg37
g5
sg38
g13
(g17
S'[\x85z\x9a\xbb\xd6\xc9\xbf'
p879
tp880
Rp881
sg42
g13
(g17
S'\xe0\xa3[D\xbfI\xdb\xbf'
p882
tp883
Rp884
sg46
g13
(g17
S'\xd3)m{D0\xe1\xbf'
p885
tp886
Rp887
sg50
g13
(g17
S'D\x06\xb6\xb7{\xc0\xd9\xbf'
p888
tp889
Rp890
ssS'GOLD JOSEPH'
p891
(dp892
g3
g5
sg4
g5
sg6
g5
sg7
I00
sg8
g5
sg9
S'joe.gold@enron.com'
p893
sg11
I304805
sg12
g13
(g17
S'\xe2\x00\r\x9d\xff\xd7\xe7\xbf'
p894
tp895
Rp896
sg23
g5
sg24
g5
sg25
g5
sg26
g5
sg27
I819288
sg28
I49
sg29
g5
sg30
I750000
sg31
I877611
sg32
g5
sg33
g5
sg34
I441096
sg35
I272880
sg36
I2146973
sg37
I436515
sg38
g13
(g17
S'\x94\x95\xb1\xbd$7\xd8\xbf'
p897
tp898
Rp899
sg42
g13
(g17
S'V\xaa\x08\xce\xea\xab\xd9\xbf'
p900
tp901
Rp902
sg46
g13
(g17
S'UJ\x8dH2\xe3\xd9\xbf'
p903
tp904
Rp905
sg50
g13
(g17
S'Om\x00\r\x8b\x85\xde\xbf'
p906
tp907
Rp908
ssS'BANNANTINE JAMES M'
p909
(dp910
g3
I566
sg4
g5
sg6
I56301
sg7
I00
sg8
I-5104
sg9
S'james.bannantine@enron.com'
p911
sg11
g5
sg12
g13
(g17
S'\xf9p<\xbb\xed\x8a\xca\xbf'
p912
tp913
Rp914
sg23
I-560222
sg24
I465
sg25
g5
sg26
I29
sg27
I864523
sg28
I50
sg29
g5
sg30
g5
sg31
I5243487
sg32
I39
sg33
I0
sg34
I1757552
sg35
I477
sg36
I916197
sg37
I4046157
sg38
g13
(g17
S'\x07lDZ#\x08\x9d?'
p915
tp916
Rp917
sg42
g13
(g17
S'\xe0\xa3[D\xbfI\xdb\xbf'
p918
tp919
Rp920
sg46
g13
(g17
S'm~\xd7\x8dW\x02\xe8?'
p921
tp922
Rp923
sg50
g13
(g17
S'\x8d%<\xf3\x16\x85\xd4?'
p924
tp925
Rp926
ssS'DUNCAN JOHN H'
p927
(dp928
g3
g5
sg4
g5
sg6
g5
sg7
I00
sg8
I-25000
sg9
g5
sg11
g5
sg12
g13
(g17
S'm\xd4\xc9Ik\x06\xe4\xbf'
p929
tp930
Rp931
sg23
g5
sg24
g5
sg25
g5
sg26
g5
sg27
g5
sg28
I51
sg29
I102492
sg30
g5
sg31
I371750
sg32
g5
sg33
g5
sg34
g5
sg35
g5
sg36
I77492
sg37
I371750
sg38
g13
(g17
S'\xbf\xf2\x8a\xe4^\xaa\xc7\xbf'
p932
tp933
Rp934
sg42
g13
(g17
S'\xe0\xa3[D\xbfI\xdb\xbf'
p935
tp936
Rp937
sg46
g13
(g17
S'X\xa58\x1a\xcf\x0b\xdc\xbf'
p938
tp939
Rp940
sg50
g13
(g17
S'D\x06\xb6\xb7{\xc0\xd9\xbf'
p941
tp942
Rp943
ssS'SHAPIRO RICHARD S'
p944
(dp945
g3
I15149
sg4
g5
sg6
I137767
sg7
I00
sg8
g5
sg9
S'richard.shapiro@enron.com'
p946
sg11
g5
sg12
g13
(g17
S'\x9f\x99\xcad\xf1\x94\x0b@'
p947
tp948
Rp949
sg23
g5
sg24
I4527
sg25
g5
sg26
I1215
sg27
I705
sg28
I52
sg29
g5
sg30
I650000
sg31
I987001
sg32
I74
sg33
I65
sg34
I379164
sg35
I269076
sg36
I1057548
sg37
I607837
sg38
g13
(g17
S'\xba\xa8\xed\xbb\x91\x94\xc4\xbf'
p950
tp951
Rp952
sg42
g13
(g17
S'\xf3e\x18!B\x8c\xcd\xbf'
p953
tp954
Rp955
sg46
g13
(g17
S'S\xef\x83$\x99\xd1\xd3\xbf'
p956
tp957
Rp958
sg50
g13
(g17
S'k\xe2M\x91\x03\xa8\xd7\xbf'
p959
tp960
Rp961
ssS'SHERRIFF JOHN R'
p962
(dp963
g3
I3187
sg4
g5
sg6
g5
sg7
I00
sg8
g5
sg9
S'john.sherriff@enron.com'
p964
sg11
I554422
sg12
g13
(g17
S'\xc2\xa5\xc5&\xc9C\xf4?'
p965
tp966
Rp967
sg23
g5
sg24
I2103
sg25
g5
sg26
I92
sg27
I1852186
sg28
I53
sg29
g5
sg30
I1500000
sg31
I3128982
sg32
I28
sg33
I23
sg34
I1293424
sg35
I428780
sg36
I4335388
sg37
I1835558
sg38
g13
(g17
S'\x05\xfd\x02WH\x0e\xab\xbf'
p968
tp969
Rp970
sg42
g13
(g17
S'\x1f9\xee\x12\x86\xf5\xb8\xbf'
p971
tp972
Rp973
sg46
g13
(g17
S'\x9a\xce\xb2K\x08Y\xc8?'
p974
tp975
Rp976
sg50
g13
(g17
S';\x9aj\xd8l\x8f\xce\xbf'
p977
tp978
Rp979
ssS'SHELBY REX'
p980
(dp981
g3
I225
sg4
g5
sg6
I22884
sg7
I01
sg8
I-4167
sg9
S'rex.shelby@enron.com'
p982
sg11
g5
sg12
g13
(g17
S'\xd9\xdcJ\xf4\xe2\xe4\xe4\xbf'
p983
tp984
Rp985
sg23
g5
sg24
I91
sg25
g5
sg26
I39
sg27
I1573324
sg28
I54
sg29
g5
sg30
I200000
sg31
I2493616
sg32
I13
sg33
I14
sg34
I869220
sg35
I211844
sg36
I2003885
sg37
I1624396
sg38
g13
(g17
S'\x98e\xd9\x00[\xb0\xc0\xbf'
p986
tp987
Rp988
sg42
g13
(g17
S'\xe5\xfb\x0ci\xed\xe8\xf8?'
p989
tp990
Rp991
sg46
g13
(g17
S'Hu\xac\xec\xfa\x94\xc6\xbf'
p992
tp993
Rp994
sg50
g13
(g17
S'\xa5\x8f!u\xacN\xc2\xbf'
p995
tp996
Rp997
ssS'LEMAISTRE CHARLES'
p998
(dp999
g3
g5
sg4
g5
sg6
g5
sg7
I00
sg8
I-25000
sg9
g5
sg11
g5
sg12
g13
(g17
S'm\xd4\xc9Ik\x06\xe4\xbf'
p1000
tp1001
Rp1002
sg23
g5
sg24
g5
sg25
g5
sg26
g5
sg27
g5
sg28
I55
sg29
I112492
sg30
g5
sg31
I412878
sg32
g5
sg33
g5
sg34
g5
sg35
g5
sg36
I87492
sg37
I412878
sg38
g13
(g17
S'4\xf0M\xc3\xd5l\xc7\xbf'
p1003
tp1004
Rp1005
sg42
g13
(g17
S'\xe0\xa3[D\xbfI\xdb\xbf'
p1006
tp1007
Rp1008
sg46
g13
(g17
S'@&\x14\xe0\xbdX\xdb\xbf'
p1009
tp1010
Rp1011
sg50
g13
(g17
S'D\x06\xb6\xb7{\xc0\xd9\xbf'
p1012
tp1013
Rp1014
ssS'DEFFNER JOSEPH M'
p1015
(dp1016
g3
I714
sg4
g5
sg6
I41626
sg7
I00
sg8
g5
sg9
S'joseph.deffner@enron.com'
p1017
sg11
I335349
sg12
g13
(g17
S'}R\x91$\xb1\x85\xc0\xbf'
p1018
tp1019
Rp1020
sg23
g5
sg24
I552
sg25
g5
sg26
I74
sg27
I25553
sg28
I56
sg29
g5
sg30
I600000
sg31
I159211
sg32
I115
sg33
I4
sg34
I141833
sg35
I206121
sg36
I1208649
sg37
I17378
sg38
g13
(g17
S'R\xc0\xec7\xceu\xc8\xbf'
p1021
tp1022
Rp1023
sg42
g13
(g17
S'\x91\x83qJ\xc7\xe5\xc5\xbf'
p1024
tp1025
Rp1026
sg46
g13
(g17
S'\x98\xa3;\x0b\x85_\xdf\xbf'
p1027
tp1028
Rp1029
sg50
g13
(g17
S'N\x9c\x92\t\x02\xb8\xdb?'
p1030
tp1031
Rp1032
ssS'KISHKILL JOSEPH G'
p1033
(dp1034
g3
g5
sg4
g5
sg6
I116335
sg7
I00
sg8
I-51042
sg9
S'joe.kishkill@enron.com'
p1035
sg11
g5
sg12
g13
(g17
S'm\xd4\xc9Ik\x06\xe4\xbf'
p1036
tp1037
Rp1038
sg23
g5
sg24
g5
sg25
g5
sg26
g5
sg27
I465357
sg28
I57
sg29
g5
sg30
g5
sg31
I1034346
sg32
g5
sg33
g5
sg34
I1034346
sg35
I174246
sg36
I704896
sg37
g5
sg38
g13
(g17
S'\xfd\xe9+;\xees\xc6\xbf'
p1039
tp1040
Rp1041
sg42
g13
(g17
S'\xe0\xa3[D\xbfI\xdb\xbf'
p1042
tp1043
Rp1044
sg46
g13
(g17
S'\x1bH\x1b\r\xfeG\xda\xbf'
p1045
tp1046
Rp1047
sg50
g13
(g17
S'D\x06\xb6\xb7{\xc0\xd9\xbf'
p1048
tp1049
Rp1050
ssS'WHALLEY LAWRENCE G'
p1051
(dp1052
g3
I6019
sg4
g5
sg6
I57838
sg7
I00
sg8
g5
sg9
S'greg.whalley@enron.com'
p1053
sg11
I808346
sg12
g13
(g17
S'\r\x04\xebkV6\x07@'
p1054
tp1055
Rp1056
sg23
g5
sg24
I3920
sg25
g5
sg26
I556
sg27
I301026
sg28
I58
sg29
g5
sg30
I3000000
sg31
I6079137
sg32
I186
sg33
I24
sg34
I2796177
sg35
I510364
sg36
I4677574
sg37
I3282960
sg38
g13
(g17
S'\x9d\x96\xd9\x92\x07\x9a\xa2?'
p1057
tp1058
Rp1059
sg42
g13
(g17
S'\xc1\xe9\x97v:Q\xcf\xbf'
p1060
tp1061
Rp1062
sg46
g13
(g17
S'\xb8\xbf6e5\x8d\xe8?'
p1063
tp1064
Rp1065
sg50
g13
(g17
S'"\xa5a\xe6\xad{\xcc\xbf'
p1066
tp1067
Rp1068
ssS'MCCONNELL MICHAEL S'
p1069
(dp1070
g3
I3329
sg4
g5
sg6
I81364
sg7
I00
sg8
g5
sg9
S'mike.mcconnell@enron.com'
p1071
sg11
I554422
sg12
g13
(g17
S'\xcd\xc1\x8f0\xc1\x80\xf5?'
p1072
tp1073
Rp1074
sg23
g5
sg24
I2189
sg25
g5
sg26
I2742
sg27
I540
sg28
I59
sg29
g5
sg30
I1100000
sg31
I3101279
sg32
I92
sg33
I194
sg34
I1478269
sg35
I365038
sg36
I2101364
sg37
I1623010
sg38
g13
(g17
S'\xffEq\xd8\xb7.\xb6\xbf'
p1075
tp1076
Rp1077
sg42
g13
(g17
S'\xb5=\x9c\xbc\xa8\xd5\x01@'
p1078
tp1079
Rp1080
sg46
g13
(g17
S'\xfc\x83\xf2s(3\xbb?'
p1081
tp1082
Rp1083
sg50
g13
(g17
S'Ow\x0f\x99\xf2\x98\xd8\xbf'
p1084
tp1085
Rp1086
ssS'PIRO JIM'
p1087
(dp1088
g3
I58
sg4
g5
sg6
g5
sg7
I00
sg8
g5
sg9
S'jim.piro@enron.com'
p1089
sg11
g5
sg12
g13
(g17
S'\xd1%\x86\x13N\xf0\xe3\xbf'
p1090
tp1091
Rp1092
sg23
g5
sg24
I3
sg25
g5
sg26
I16
sg27
g5
sg28
I60
sg29
g5
sg30
g5
sg31
I47304
sg32
I0
sg33
I1
sg34
I47304
sg35
g5
sg36
g5
sg37
g5
sg38
g13
(g17
S'\xb8N\xe1\x1c\xf0\xb8\xc9\xbf'
p1093
tp1094
Rp1095
sg42
g13
(g17
S'/!T\xcf[\xff\xd6?'
p1096
tp1097
Rp1098
sg46
g13
(g17
S'\x06\xcd\x7fX\x81\x07\xe1\xbf'
p1099
tp1100
Rp1101
sg50
g13
(g17
S'D\x06\xb6\xb7{\xc0\xd9\xbf'
p1102
tp1103
Rp1104
ssS'DELAINEY DAVID W'
p1105
(dp1106
g3
I3093
sg4
g5
sg6
I86174
sg7
I01
sg8
g5
sg9
S'david.delainey@enron.com'
p1107
sg11
I1294981
sg12
g13
(g17
S'\xe2\r\xf0Pb\x10\xf6?'
p1108
tp1109
Rp1110
sg23
g5
sg24
I2097
sg25
g5
sg26
I3069
sg27
I1661
sg28
I61
sg29
g5
sg30
I3000000
sg31
I3614261
sg32
I66
sg33
I609
sg34
I1323148
sg35
I365163
sg36
I4747979
sg37
I2291113
sg38
g13
(g17
S'\x19`\xab]\xf2z\xaa?'
p1111
tp1112
Rp1113
sg42
g13
(g17
S'\x80^fs\xcf-\x17@'
p1114
tp1115
Rp1116
sg46
g13
(g17
S'\x00>\xf4\x8f\xc05\x97?'
p1117
tp1118
Rp1119
sg50
g13
(g17
S'\xf5\xac\xc7j\xa0$\xdd\xbf'
p1120
tp1121
Rp1122
ssS'SULLIVAN-SHAKLOVITZ COLLEEN'
p1123
(dp1124
g3
g5
sg4
I181993
sg6
g5
sg7
I00
sg8
g5
sg9
g5
sg11
I554422
sg12
g13
(g17
S'm\xd4\xc9Ik\x06\xe4\xbf'
p1125
tp1126
Rp1127
sg23
g5
sg24
g5
sg25
g5
sg26
g5
sg27
I162
sg28
I62
sg29
g5
sg30
I100000
sg31
I1362375
sg32
g5
sg33
g5
sg34
g5
sg35
I162779
sg36
I999356
sg37
I1362375
sg38
g13
(g17
S'\xebgk\xbf@n\xc1\xbf'
p1128
tp1129
Rp1130
sg42
g13
(g17
S'\xe0\xa3[D\xbfI\xdb\xbf'
p1131
tp1132
Rp1133
sg46
g13
(g17
S'\xc3M\x91\xa3\x1e\xd7\xc4\xbf'
p1134
tp1135
Rp1136
sg50
g13
(g17
S'D\x06\xb6\xb7{\xc0\xd9\xbf'
p1137
tp1138
Rp1139
ssS'WROBEL BRUCE'
p1140
(dp1141
g3
g5
sg4
g5
sg6
g5
sg7
I00
sg8
g5
sg9
g5
sg11
g5
sg12
g13
(g17
S'm\xd4\xc9Ik\x06\xe4\xbf'
p1142
tp1143
Rp1144
sg23
g5
sg24
g5
sg25
g5
sg26
g5
sg27
g5
sg28
I63
sg29
g5
sg30
g5
sg31
I139130
sg32
g5
sg33
g5
sg34
g5
sg35
g5
sg36
g5
sg37
I139130
sg38
g13
(g17
S'2\t\x1c\xd3\xea\x06\xc9\xbf'
p1145
tp1146
Rp1147
sg42
g13
(g17
S'\xe0\xa3[D\xbfI\xdb\xbf'
p1148
tp1149
Rp1150
sg46
g13
(g17
S'\x99\xad\xa7_\xe9\x03\xe0\xbf'
p1151
tp1152
Rp1153
sg50
g13
(g17
S'D\x06\xb6\xb7{\xc0\xd9\xbf'
p1154
tp1155
Rp1156
ssS'LINDHOLM TOD A'
p1157
(dp1158
g3
g5
sg4
I204075
sg6
I57727
sg7
I00
sg8
g5
sg9
S'tod.lindholm@enron.com'
p1159
sg11
I175000
sg12
g13
(g17
S'm\xd4\xc9Ik\x06\xe4\xbf'
p1160
tp1161
Rp1162
sg23
g5
sg24
g5
sg25
g5
sg26
g5
sg27
I2630
sg28
I64
sg29
g5
sg30
I200000
sg31
I3064208
sg32
g5
sg33
g5
sg34
I514847
sg35
I236457
sg36
I875889
sg37
I2549361
sg38
g13
(g17
S'<\xe2\xac\xd5\x97\x97\xb2\xbf'
p1163
tp1164
Rp1165
sg42
g13
(g17
S'\xe0\xa3[D\xbfI\xdb\xbf'
p1166
tp1167
Rp1168
sg46
g13
(g17
S'\\\x7f\x8c\xcf6\xbc\xca?'
p1169
tp1170
Rp1171
sg50
g13
(g17
S'D\x06\xb6\xb7{\xc0\xd9\xbf'
p1172
tp1173
Rp1174
ssS'MEYER JEROME J'
p1175
(dp1176
g3
g5
sg4
g5
sg6
I2151
sg7
I00
sg8
I-38346
sg9
g5
sg11
g5
sg12
g13
(g17
S'\xe2\x00\r\x9d\xff\xd7\xe7\xbf'
p1177
tp1178
Rp1179
sg23
g5
sg24
g5
sg25
g5
sg26
g5
sg27
g5
sg28
I65
sg29
I38346
sg30
g5
sg31
g5
sg32
g5
sg33
g5
sg34
g5
sg35
g5
sg36
I2151
sg37
g5
sg38
g13
(g17
S'\x82=\x0e\xa1\x06\xc6\xe1\xbf'
p1180
tp1181
Rp1182
sg42
g13
(g17
S'V\xaa\x08\xce\xea\xab\xd9\xbf'
p1183
tp1184
Rp1185
sg46
g13
(g17
S'S\xc6D\x089J\xe1\xbf'
p1186
tp1187
Rp1188
sg50
g13
(g17
S'Om\x00\r\x8b\x85\xde\xbf'
p1189
tp1190
Rp1191
ssS'LAY KENNETH L'
p1192
(dp1193
g3
I4273
sg4
I202911
sg6
I99832
sg7
I01
sg8
I-300000
sg9
S'kenneth.lay@enron.com'
p1194
sg11
I3600000
sg12
g13
(g17
S'H\xfeW\x08\xfa\xb2\xf8?'
p1195
tp1196
Rp1197
sg23
g5
sg24
I2411
sg25
I81525000
sg26
I36
sg27
I10359729
sg28
I66
sg29
g5
sg30
I7000000
sg31
I49110078
sg32
I123
sg33
I16
sg34
I14761694
sg35
I1072321
sg36
I103559793
sg37
I34348384
sg38
g13
(g17
S'\xb8\xac~\x85F\x90#@'
p1198
tp1199
Rp1200
sg42
g13
(g17
S'\xe3\xa8}\x1f\xff]\xd0\xbf'
p1201
tp1202
Rp1203
sg46
g13
(g17
S'Qu\xb5\xfd\xa0\xbe\xfc\xbf'
p1204
tp1205
Rp1206
sg50
g13
(g17
S'\x04\xc3\x8b\xfa\x96\xf3\xf6?'
p1207
tp1208
Rp1209
ssS'BUTTS ROBERT H'
p1210
(dp1211
g3
g5
sg4
g5
sg6
I9410
sg7
I00
sg8
I-75000
sg9
S'bob.butts@enron.com'
p1212
sg11
I175000
sg12
g13
(g17
S'\xe2\x00\r\x9d\xff\xd7\xe7\xbf'
p1213
tp1214
Rp1215
sg23
g5
sg24
g5
sg25
g5
sg26
g5
sg27
I150656
sg28
I67
sg29
g5
sg30
I750000
sg31
I417619
sg32
g5
sg33
g5
sg34
I417619
sg35
I261516
sg36
I1271582
sg37
g5
sg38
g13
(g17
S'\xbd\xe7\xcf\x91\xf1P\xdf\xbf'
p1216
tp1217
Rp1218
sg42
g13
(g17
S'V\xaa\x08\xce\xea\xab\xd9\xbf'
p1219
tp1220
Rp1221
sg46
g13
(g17
S'\x89q\xd0\xab\xfbM\xdf\xbf'
p1222
tp1223
Rp1224
sg50
g13
(g17
S'Om\x00\r\x8b\x85\xde\xbf'
p1225
tp1226
Rp1227
ssS'OLSON CINDY K'
p1228
(dp1229
g3
I1184
sg4
I77716
sg6
I63791
sg7
I00
sg8
g5
sg9
S'cindy.olson@enron.com'
p1230
sg11
I100000
sg12
g13
(g17
S'\x9b\xce\x00\xc4B8\xbf?'
p1231
tp1232
Rp1233
sg23
g5
sg24
I856
sg25
g5
sg26
I52
sg27
I972
sg28
I68
sg29
g5
sg30
I750000
sg31
I2606763
sg32
I20
sg33
I15
sg34
I969729
sg35
I329078
sg36
I1321557
sg37
I1637034
sg38
g13
(g17
S'~\x99\n\xdf\r\xc3\xc6\xbf'
p1234
tp1235
Rp1236
sg42
g13
(g17
S'e?X\xa5Z!d\xbf'
p1237
tp1238
Rp1239
sg46
g13
(g17
S'\xdc,\xf2l"\x1b\xc6\xbf'
p1240
tp1241
Rp1242
sg50
g13
(g17
S'\x98/M\x06\x11w\xb7\xbf'
p1243
tp1244
Rp1245
ssS'MCDONALD REBECCA'
p1246
(dp1247
g3
I894
sg4
g5
sg6
g5
sg7
I00
sg8
g5
sg9
S'rebecca.mcdonald@enron.com'
p1248
sg11
g5
sg12
g13
(g17
S'\xef\xac;\xb5\xf2\x9e\x96?'
p1249
tp1250
Rp1251
sg23
g5
sg24
I720
sg25
g5
sg26
I13
sg27
g5
sg28
I69
sg29
g5
sg30
g5
sg31
I1691366
sg32
I54
sg33
I1
sg34
I934065
sg35
g5
sg36
g5
sg37
I757301
sg38
g13
(g17
S'\xb3\xeb\x1f\x00\xc2\x16\xc3\xbf'
p1252
tp1253
Rp1254
sg42
g13
(g17
S'cZ\x84F\x94\x06\xd8\xbf'
p1255
tp1256
Rp1257
sg46
g13
(g17
S'\xb0\xe8\xd1\xa3\xdd\xad\xcd\xbf'
p1258
tp1259
Rp1260
sg50
g13
(g17
S'\xf0\x17q\x88\xe7J\xfd?'
p1261
tp1262
Rp1263
ssS'CUMBERLAND MICHAEL S'
p1264
(dp1265
g3
g5
sg4
g5
sg6
I22344
sg7
I00
sg8
g5
sg9
g5
sg11
I275000
sg12
g13
(g17
S'm\xd4\xc9Ik\x06\xe4\xbf'
p1266
tp1267
Rp1268
sg23
g5
sg24
g5
sg25
g5
sg26
g5
sg27
I713
sg28
I70
sg29
g5
sg30
I325000
sg31
I207940
sg32
g5
sg33
g5
sg34
I207940
sg35
I184899
sg36
I807956
sg37
g5
sg38
g13
(g17
S'\xe0\xb2\x8d!`\xc7\xc8\xbf'
p1269
tp1270
Rp1271
sg42
g13
(g17
S'\xe0\xa3[D\xbfI\xdb\xbf'
p1272
tp1273
Rp1274
sg46
g13
(g17
S':#\x9f\xeaL\xde\xdf\xbf'
p1275
tp1276
Rp1277
sg50
g13
(g17
S'D\x06\xb6\xb7{\xc0\xd9\xbf'
p1278
tp1279
Rp1280
ssS'GAHN ROBERT S'
p1281
(dp1282
g3
g5
sg4
I73122
sg6
I50080
sg7
I00
sg8
I-1042
sg9
g5
sg11
g5
sg12
g13
(g17
S'm\xd4\xc9Ik\x06\xe4\xbf'
p1283
tp1284
Rp1285
sg23
g5
sg24
g5
sg25
g5
sg26
g5
sg27
I76547
sg28
I71
sg29
g5
sg30
I509870
sg31
I318607
sg32
g5
sg33
g5
sg34
I235370
sg35
I192008
sg36
I900585
sg37
I83237
sg38
g13
(g17
S'\xa4\xc4\x15\x0f\xaf\x0b\xc8\xbf'
p1286
tp1287
Rp1288
sg42
g13
(g17
S'\xe0\xa3[D\xbfI\xdb\xbf'
p1289
tp1290
Rp1291
sg46
g13
(g17
S'\xdc\xdds\xba\xf4\x04\xde\xbf'
p1292
tp1293
Rp1294
sg50
g13
(g17
S'D\x06\xb6\xb7{\xc0\xd9\xbf'
p1295
tp1296
Rp1297
ssS'MCCLELLAN GEORGE'
p1298
(dp1299
g3
I1744
sg4
g5
sg6
I228763
sg7
I00
sg8
I-125000
sg9
S'george.mcclellan@enron.com'
p1300
sg11
g5
sg12
g13
(g17
S'\xc6\xd1\xab\x81\x1fF\xe6?'
p1301
tp1302
Rp1303
sg23
g5
sg24
I1469
sg25
g5
sg26
I49
sg27
I51587
sg28
I72
sg29
g5
sg30
I900000
sg31
I947861
sg32
I52
sg33
I0
sg34
I441096
sg35
I263413
sg36
I1318763
sg37
I506765
sg38
g13
(g17
S'\xbd$[\xd1\x9c\xa5\xc4\xbf'
p1304
tp1305
Rp1306
sg42
g13
(g17
S'\xe0\xa3[D\xbfI\xdb\xbf'
p1307
tp1308
Rp1309
sg46
g13
(g17
S'\xbd\xa5\xe5W\x88_\xd4\xbf'
p1310
tp1311
Rp1312
sg50
g13
(g17
S'N\xadsZ\x16\x86\xc5?'
p1313
tp1314
Rp1315
ssS'HERMANN ROBERT J'
p1316
(dp1317
g3
g5
sg4
g5
sg6
I48357
sg7
I00
sg8
I-280000
sg9
S'robert.hermann@enron.com'
p1318
sg11
I150000
sg12
g13
(g17
S'm\xd4\xc9Ik\x06\xe4\xbf'
p1319
tp1320
Rp1321
sg23
g5
sg24
g5
sg25
g5
sg26
g5
sg27
I416441
sg28
I73
sg29
g5
sg30
I700000
sg31
I668132
sg32
g5
sg33
g5
sg34
I480632
sg35
I262663
sg36
I1297461
sg37
I187500
sg38
g13
(g17
S'\x05\x01TqQ\xee\xc5\xbf'
p1322
tp1323
Rp1324
sg42
g13
(g17
S'\xe0\xa3[D\xbfI\xdb\xbf'
p1325
tp1326
Rp1327
sg46
g13
(g17
S'k\t\xf3f\xb22\xd9\xbf'
p1328
tp1329
Rp1330
sg50
g13
(g17
S'D\x06\xb6\xb7{\xc0\xd9\xbf'
p1331
tp1332
Rp1333
ssS'SCRIMSHAW MATTHEW'
p1334
(dp1335
g3
g5
sg4
g5
sg6
g5
sg7
I00
sg8
g5
sg9
S'matthew.scrimshaw@enron.com'
p1336
sg11
g5
sg12
g13
(g17
S'm\xd4\xc9Ik\x06\xe4\xbf'
p1337
tp1338
Rp1339
sg23
g5
sg24
g5
sg25
g5
sg26
g5
sg27
g5
sg28
I74
sg29
g5
sg30
g5
sg31
I759557
sg32
g5
sg33
g5
sg34
g5
sg35
g5
sg36
g5
sg37
I759557
sg38
g13
(g17
S'\xcf$\x0f\x9a\xa2f\xc5\xbf'
p1340
tp1341
Rp1342
sg42
g13
(g17
S'\xe0\xa3[D\xbfI\xdb\xbf'
p1343
tp1344
Rp1345
sg46
g13
(g17
S'\xce@\x1eq\x8bz\xd5\xbf'
p1346
tp1347
Rp1348
sg50
g13
(g17
S'D\x06\xb6\xb7{\xc0\xd9\xbf'
p1349
tp1350
Rp1351
ssS'GATHMANN WILLIAM D'
p1352
(dp1353
g3
g5
sg4
g5
sg6
g5
sg7
I00
sg8
g5
sg9
g5
sg11
g5
sg12
g13
(g17
S'\xe2\x00\r\x9d\xff\xd7\xe7\xbf'
p1354
tp1355
Rp1356
sg23
I-72419
sg24
g5
sg25
g5
sg26
g5
sg27
g5
sg28
I75
sg29
g5
sg30
g5
sg31
I1945360
sg32
g5
sg33
g5
sg34
I264013
sg35
g5
sg36
g5
sg37
I1753766
sg38
g13
(g17
S'\xcaZ\xf1X\xc0K\xce\xbf'
p1357
tp1358
Rp1359
sg42
g13
(g17
S'V\xaa\x08\xce\xea\xab\xd9\xbf'
p1360
tp1361
Rp1362
sg46
g13
(g17
S'\xbe\x9a\xa4P8p\xcc\xbf'
p1363
tp1364
Rp1365
sg50
g13
(g17
S'Om\x00\r\x8b\x85\xde\xbf'
p1366
tp1367
Rp1368
ssS'HAEDICKE MARK E'
p1369
(dp1370
g3
I4009
sg4
I2157527
sg6
I76169
sg7
I00
sg8
I-934484
sg9
S'mark.haedicke@enron.com'
p1371
sg11
I983346
sg12
g13
(g17
S'+\xe1}\x1b@\x94\xf0?'
p1372
tp1373
Rp1374
sg23
I-329825
sg24
I1847
sg25
g5
sg26
I1941
sg27
I52382
sg28
I76
sg29
g5
sg30
I1150000
sg31
I803094
sg32
I180
sg33
I61
sg34
I524169
sg35
I374125
sg36
I3859065
sg37
I608750
sg38
g13
(g17
S'\xab2\xaa\xe4K\xf0\xc2\xbf'
p1375
tp1376
Rp1377
sg42
g13
(g17
S'I\xd8\x15\x0e\xf4\x16\xd1?'
p1378
tp1379
Rp1380
sg46
g13
(g17
S'\x91\x07>VbS\xcf\xbf'
p1381
tp1382
Rp1383
sg50
g13
(g17
S'\xe5\xac,\xf3\xa4\x8f\xd6\xbf'
p1384
tp1385
Rp1386
ssS'BOWEN JR RAYMOND M'
p1387
(dp1388
g3
I1858
sg4
g5
sg6
I65907
sg7
I01
sg8
I-833
sg9
S'raymond.bowen@enron.com'
p1389
sg11
I974293
sg12
g13
(g17
S'9X\x99D,\xd8\xe9?'
p1390
tp1391
Rp1392
sg23
g5
sg24
I1593
sg25
g5
sg26
I27
sg27
I1621
sg28
I77
sg29
g5
sg30
I1350000
sg31
I252055
sg32
I140
sg33
I15
sg34
I252055
sg35
I278601
sg36
I2669589
sg37
g5
sg38
g13
(g17
S'V\x17\xdf\xc6\n"\xc7\xbf'
p1393
tp1394
Rp1395
sg42
g13
(g17
S'rK\xddD\xcb\xef\xad\xbf'
p1396
tp1397
Rp1398
sg46
g13
(g17
S'\x95\x97\xc56\x0c\xb9\xdc\xbf'
p1399
tp1400
Rp1401
sg50
g13
(g17
S'\x1c\x9a)\xff\xfc\x14\x03@'
p1402
tp1403
Rp1404
ssS'GILLIS JOHN'
p1405
(dp1406
g3
g5
sg4
g5
sg6
g5
sg7
I00
sg8
g5
sg9
g5
sg11
g5
sg12
g13
(g17
S'm\xd4\xc9Ik\x06\xe4\xbf'
p1407
tp1408
Rp1409
sg23
g5
sg24
g5
sg25
g5
sg26
g5
sg27
g5
sg28
I78
sg29
g5
sg30
g5
sg31
I85641
sg32
g5
sg33
g5
sg34
I75838
sg35
g5
sg36
g5
sg37
I9803
sg38
g13
(g17
S'H\x86\xec8\x16\x98\xc9\xbf'
p1410
tp1411
Rp1412
sg42
g13
(g17
S'\xe0\xa3[D\xbfI\xdb\xbf'
p1413
tp1414
Rp1415
sg46
g13
(g17
S'\xe2XN\xf6\r\xd8\xe0\xbf'
p1416
tp1417
Rp1418
sg50
g13
(g17
S'D\x06\xb6\xb7{\xc0\xd9\xbf'
p1419
tp1420
Rp1421
ssS'FITZGERALD JAY L'
p1422
(dp1423
g3
I936
sg4
g5
sg6
I23870
sg7
I00
sg8
g5
sg9
S'jay.fitzgerald@enron.com'
p1424
sg11
I556416
sg12
g13
(g17
S'a\x80\xb1}\x99b\x99?'
p1425
tp1426
Rp1427
sg23
g5
sg24
I723
sg25
g5
sg26
I16
sg27
I285414
sg28
I79
sg29
g5
sg30
I350000
sg31
I1621236
sg32
I1
sg33
I8
sg34
I956775
sg35
I199157
sg36
I1414857
sg37
I664461
sg38
g13
(g17
S'4\xae\xe6]S^\xc2\xbf'
p1428
tp1429
Rp1430
sg42
g13
(g17
S'\xaf6\xbd\x02\xa9\xe1\xa2\xbf'
p1431
tp1432
Rp1433
sg46
g13
(g17
S'\xe3"lW\x18 \xcd\xbf'
p1434
tp1435
Rp1436
sg50
g13
(g17
S'\x1a\x97\xeb\xc5\xf7\x99\xd7\xbf'
p1437
tp1438
Rp1439
ssS'MORAN MICHAEL P'
p1440
(dp1441
g3
I672
sg4
g5
sg6
g5
sg7
I00
sg8
g5
sg9
S'michael.moran@enron.com'
p1442
sg11
g5
sg12
g13
(g17
S'^\x9f\x98PA^\xe0\xbf'
p1443
tp1444
Rp1445
sg23
g5
sg24
I127
sg25
g5
sg26
I19
sg27
g5
sg28
I80
sg29
g5
sg30
g5
sg31
I221141
sg32
I0
sg33
I0
sg34
I161602
sg35
g5
sg36
g5
sg37
I59539
sg38
g13
(g17
S'\xfdF\xa4U\x04\x17\xc9\xbf'
p1446
tp1447
Rp1448
sg42
g13
(g17
S'\xe0\xa3[D\xbfI\xdb\xbf'
p1449
tp1450
Rp1451
sg46
g13
(g17
S'\xd0\x1b\xb9\xa2M\x1d\xe0\xbf'
p1452
tp1453
Rp1454
sg50
g13
(g17
S'D\x06\xb6\xb7{\xc0\xd9\xbf'
p1455
tp1456
Rp1457
ssS'REDMOND BRIAN L'
p1458
(dp1459
g3
I1671
sg4
g5
sg6
I14689
sg7
I00
sg8
g5
sg9
S'brian.redmond@enron.com'
p1460
sg11
g5
sg12
g13
(g17
S'k\\\xc8\xa3\xb1*\xd5?'
p1461
tp1462
Rp1463
sg23
g5
sg24
I1063
sg25
g5
sg26
I221
sg27
g5
sg28
I81
sg29
g5
sg30
g5
sg31
I7890324
sg32
I204
sg33
I49
sg34
I381285
sg35
I96840
sg36
I111529
sg37
I7509039
sg38
g13
(g17
S'\xeb\xed\xc5x#\x03\xc3?'
p1464
tp1465
Rp1466
sg42
g13
(g17
S'\xf3\x0c\x89\x19F\x1e\xed?'
p1467
tp1468
Rp1469
sg46
g13
(g17
S'\x19Ld\xc0S\x06\xf8?'
p1470
tp1471
Rp1472
sg50
g13
(g17
S'\x82z\x06\xc6\xd2\x08\xb8?'
p1473
tp1474
Rp1475
ssS'BAZELIDES PHILIP J'
p1476
(dp1477
g3
g5
sg4
I684694
sg6
g5
sg7
I00
sg8
g5
sg9
g5
sg11
I93750
sg12
g13
(g17
S'm\xd4\xc9Ik\x06\xe4\xbf'
p1478
tp1479
Rp1480
sg23
g5
sg24
g5
sg25
g5
sg26
g5
sg27
I874
sg28
I82
sg29
g5
sg30
g5
sg31
I1599641
sg32
g5
sg33
g5
sg34
g5
sg35
I80818
sg36
I860136
sg37
I1599641
sg38
g13
(g17
S'\x0e\xd1\xb5\xd8rl\xc0\xbf'
p1481
tp1482
Rp1483
sg42
g13
(g17
S'\xe0\xa3[D\xbfI\xdb\xbf'
p1484
tp1485
Rp1486
sg46
g13
(g17
S'B\xd5\x98\xa889\xbc\xbf'
p1487
tp1488
Rp1489
sg50
g13
(g17
S'D\x06\xb6\xb7{\xc0\xd9\xbf'
p1490
tp1491
Rp1492
ssS'BELDEN TIMOTHY N'
p1493
(dp1494
g3
I7991
sg4
I2144013
sg6
I17355
sg7
I01
sg8
I-2334434
sg9
S'tim.belden@enron.com'
p1495
sg11
g5
sg12
g13
(g17
S'$w\xd89]^\x11@'
p1496
tp1497
Rp1498
sg23
g5
sg24
I5521
sg25
g5
sg26
I484
sg27
I210698
sg28
I83
sg29
g5
sg30
I5249999
sg31
I1110705
sg32
I228
sg33
I108
sg34
I157569
sg35
I213999
sg36
I5501630
sg37
I953136
sg38
g13
(g17
S'\xde\xa5gdT\x0e\xbb\xbf'
p1499
tp1500
Rp1501
sg42
g13
(g17
S'\xf4!1}~B\xc8?'
p1502
tp1503
Rp1504
sg46
g13
(g17
S':@N?\x06~\xa8\xbf'
p1505
tp1506
Rp1507
sg50
g13
(g17
S'f0\xfb\xb9I\x16\xc3\xbf'
p1508
tp1509
Rp1510
ssS'DURAN WILLIAM D'
p1511
(dp1512
g3
I904
sg4
g5
sg6
I25785
sg7
I00
sg8
g5
sg9
S'w.duran@enron.com'
p1513
sg11
I1105218
sg12
g13
(g17
S'~\xd3\xff\xb7\xbf7\xb6\xbf'
p1514
tp1515
Rp1516
sg23
g5
sg24
I599
sg25
g5
sg26
I12
sg27
I1568
sg28
I84
sg29
g5
sg30
I750000
sg31
I1640910
sg32
I106
sg33
I3
sg34
I189041
sg35
I210692
sg36
I2093263
sg37
I1451869
sg38
g13
(g17
S'\xe2ua\xa7\xb4\xce\xbe\xbf'
p1517
tp1518
Rp1519
sg42
g13
(g17
S'\xe9\x81;\x86\xf5\x9b\xd1\xbf'
p1520
tp1521
Rp1522
sg46
g13
(g17
S'\xba\x7fL?\xbd\xa6\xb6\xbf'
p1523
tp1524
Rp1525
sg50
g13
(g17
S'; V\x1c\xdbb\x11@'
p1526
tp1527
Rp1528
ssS'THORN TERENCE H'
p1529
(dp1530
g3
I266
sg4
I16586
sg6
I46145
sg7
I00
sg8
g5
sg9
S'terence.thorn@enron.com'
p1531
sg11
I200000
sg12
g13
(g17
S'N\xe6Z!O\xec\xe1\xbf'
p1532
tp1533
Rp1534
sg23
g5
sg24
I73
sg25
g5
sg26
I41
sg27
I426629
sg28
I85
sg29
g5
sg30
g5
sg31
I4817796
sg32
I0
sg33
I0
sg34
I365320
sg35
I222093
sg36
I911453
sg37
I4452476
sg38
g13
(g17
S'7\x8dH\xd4\xa1E\x8f?'
p1535
tp1536
Rp1537
sg42
g13
(g17
S'\xe0\xa3[D\xbfI\xdb\xbf'
p1538
tp1539
Rp1540
sg46
g13
(g17
S'a/$\xf0\xf8a\xe6?'
p1541
tp1542
Rp1543
sg50
g13
(g17
S'D\x06\xb6\xb7{\xc0\xd9\xbf'
p1544
tp1545
Rp1546
ssS'FASTOW ANDREW S'
p1547
(dp1548
g3
g5
sg4
g5
sg6
I55921
sg7
I01
sg8
I-1386055
sg9
S'andrew.fastow@enron.com'
p1549
sg11
I1736055
sg12
g13
(g17
S'm\xd4\xc9Ik\x06\xe4\xbf'
p1550
tp1551
Rp1552
sg23
g5
sg24
g5
sg25
g5
sg26
g5
sg27
I277464
sg28
I86
sg29
g5
sg30
I1300000
sg31
I1794412
sg32
g5
sg33
g5
sg34
I1794412
sg35
I440698
sg36
I2424083
sg37
g5
sg38
g13
(g17
S'\xb33;\xf7\xb0S\xc2\xbf'
p1553
tp1554
Rp1555
sg42
g13
(g17
S'\xe0\xa3[D\xbfI\xdb\xbf'
p1556
tp1557
Rp1558
sg46
g13
(g17
S'\xdd\xab\xc8D\x1eC\xce\xbf'
p1559
tp1560
Rp1561
sg50
g13
(g17
S'D\x06\xb6\xb7{\xc0\xd9\xbf'
p1562
tp1563
Rp1564
ssS'FOY JOE'
p1565
(dp1566
g3
I57
sg4
I181755
sg6
g5
sg7
I00
sg8
g5
sg9
S'tracy.foy@enron.com'
p1567
sg11
g5
sg12
g13
(g17
S'Z\xb5\x9c%\xad\xf7\xe3\xbf'
p1568
tp1569
Rp1570
sg23
g5
sg24
I2
sg25
g5
sg26
I13
sg27
g5
sg28
I87
sg29
g5
sg30
g5
sg31
I343434
sg32
I0
sg33
I0
sg34
g5
sg35
g5
sg36
I181755
sg37
I343434
sg38
g13
(g17
S'\x9d\xef=\xe6<\xd5\xc7\xbf'
p1571
tp1572
Rp1573
sg42
g13
(g17
S'\xe0\xa3[D\xbfI\xdb\xbf'
p1574
tp1575
Rp1576
sg46
g13
(g17
S'8\xbeH\xb7M\x8e\xdc\xbf'
p1577
tp1578
Rp1579
sg50
g13
(g17
S'D\x06\xb6\xb7{\xc0\xd9\xbf'
p1580
tp1581
Rp1582
ssS'CALGER CHRISTOPHER F'
p1583
(dp1584
g3
I2598
sg4
g5
sg6
I35818
sg7
I01
sg8
I-262500
sg9
S'christopher.calger@enron.com'
p1585
sg11
I375304
sg12
g13
(g17
S'\x08z\x84\xa7\x11}\xf5?'
p1586
tp1587
Rp1588
sg23
g5
sg24
I2188
sg25
g5
sg26
I144
sg27
I486
sg28
I88
sg29
g5
sg30
I1250000
sg31
I126027
sg32
I199
sg33
I25
sg34
I126027
sg35
I240189
sg36
I1639297
sg37
g5
sg38
g13
(g17
S'\xdf\xdc\xfd\x94\x0b\xe1\xc7\xbf'
p1589
tp1590
Rp1591
sg42
g13
(g17
S'>6\xca\x8d_\xe0\x88?'
p1592
tp1593
Rp1594
sg46
g13
(g17
S'.\x8b\x16\xc6V\x19\xde\xbf'
p1595
tp1596
Rp1597
sg50
g13
(g17
S'\xed!\x8d*\x06\xcc\xd5?'
p1598
tp1599
Rp1600
ssS'RICE KENNETH D'
p1601
(dp1602
g3
I905
sg4
g5
sg6
I46950
sg7
I01
sg8
I-3504386
sg9
S'ken.rice@enron.com'
p1603
sg11
I1617011
sg12
g13
(g17
S'\xe9e\xdf\r\xaa\xa5\xc0?'
p1604
tp1605
Rp1606
sg23
g5
sg24
I864
sg25
g5
sg26
I18
sg27
I174839
sg28
I89
sg29
g5
sg30
I1750000
sg31
I22542539
sg32
I42
sg33
I4
sg34
I2748364
sg35
I420636
sg36
I505050
sg37
I19794175
sg38
g13
(g17
S'\xbfv\x13\xe5\xf8\x04\t@'
p1607
tp1608
Rp1609
sg42
g13
(g17
S'7*,\xcb,\xc5\xd0\xbf'
p1610
tp1611
Rp1612
sg46
g13
(g17
S'\xe2\xd2II9\x12\t@'
p1613
tp1614
Rp1615
sg50
g13
(g17
S'GF\x03\xady\xc3\xfd?'
p1616
tp1617
Rp1618
ssS'KAMINSKI WINCENTY J'
p1619
(dp1620
g3
I4607
sg4
g5
sg6
I83585
sg7
I00
sg8
g5
sg9
S'vince.kaminski@enron.com'
p1621
sg11
I323466
sg12
g13
(g17
S'\x15\x98G\xc3H\xe7\xb9\xbf'
p1622
tp1623
Rp1624
sg23
g5
sg24
I583
sg25
g5
sg26
I14368
sg27
I4669
sg28
I90
sg29
g5
sg30
I400000
sg31
I976037
sg32
I41
sg33
I171
sg34
I126027
sg35
I275101
sg36
I1086821
sg37
I850010
sg38
g13
(g17
S'#\x07xD\xfc\xe1\xc3\xbf'
p1625
tp1626
Rp1627
sg42
g13
(g17
S"\xe8\xb5'i\xe7=\xf4?"
p1628
tp1629
Rp1630
sg46
g13
(g17
S'x]\xd9|Z\xbc\xd1\xbf'
p1631
tp1632
Rp1633
sg50
g13
(g17
S'\xec\xb9\x85/Y\xa7\xd9\xbf'
p1634
tp1635
Rp1636
ssS'COX DAVID'
p1637
(dp1638
g3
I102
sg4
g5
sg6
I27861
sg7
I00
sg8
I-41250
sg9
S'chip.cox@enron.com'
p1639
sg11
g5
sg12
g13
(g17
S'a\x05\x88E\r\xfb\xe1\xbf'
p1640
tp1641
Rp1642
sg23
g5
sg24
I71
sg25
g5
sg26
I33
sg27
I494
sg28
I91
sg29
g5
sg30
I800000
sg31
I495633
sg32
I0
sg33
I4
sg34
I378082
sg35
I314288
sg36
I1101393
sg37
I117551
sg38
g13
(g17
S'R\x03=\xfc)F\xc7\xbf'
p1643
tp1644
Rp1645
sg42
g13
(g17
S'\xb1"f\x85\x90\xc5\xf5?'
p1646
tp1647
Rp1648
sg46
g13
(g17
S'\xaa\x9c]\xf1\x1e\xc7\xdb\xbf'
p1649
tp1650
Rp1651
sg50
g13
(g17
S'D\x06\xb6\xb7{\xc0\xd9\xbf'
p1652
tp1653
Rp1654
ssS'OVERDYKE JR JERE C'
p1655
(dp1656
g3
g5
sg4
g5
sg6
I18834
sg7
I00
sg8
g5
sg9
S'jere.overdyke@enron.com'
p1657
sg11
I135836
sg12
g13
(g17
S'm\xd4\xc9Ik\x06\xe4\xbf'
p1658
tp1659
Rp1660
sg23
g5
sg24
g5
sg25
g5
sg26
g5
sg27
I176
sg28
I92
sg29
g5
sg30
g5
sg31
I7307594
sg32
g5
sg33
g5
sg34
I2041016
sg35
I94941
sg36
I249787
sg37
I5266578
sg38
g13
(g17
S'\x98\xdb\xb2\x05$:\xb4?'
p1661
tp1662
Rp1663
sg42
g13
(g17
S'\xe0\xa3[D\xbfI\xdb\xbf'
p1664
tp1665
Rp1666
sg46
g13
(g17
S'[\xa6\x16(\x8a|\xf1?'
p1667
tp1668
Rp1669
sg50
g13
(g17
S'D\x06\xb6\xb7{\xc0\xd9\xbf'
p1670
tp1671
Rp1672
ssS'PEREIRA PAULO V. FERRAZ'
p1673
(dp1674
g3
g5
sg4
g5
sg6
I27942
sg7
I00
sg8
I-101250
sg9
g5
sg11
g5
sg12
g13
(g17
S'm\xd4\xc9Ik\x06\xe4\xbf'
p1675
tp1676
Rp1677
sg23
g5
sg24
g5
sg25
g5
sg26
g5
sg27
g5
sg28
I93
sg29
I101250
sg30
g5
sg31
g5
sg32
g5
sg33
g5
sg34
g5
sg35
g5
sg36
I27942
sg37
g5
sg38
g13
(g17
S'\xc1\x9bQ\xff\xfa\xd4\xc9\xbf'
p1678
tp1679
Rp1680
sg42
g13
(g17
S'\xe0\xa3[D\xbfI\xdb\xbf'
p1681
tp1682
Rp1683
sg46
g13
(g17
S'\xb54\xd8L($\xe1\xbf'
p1684
tp1685
Rp1686
sg50
g13
(g17
S'D\x06\xb6\xb7{\xc0\xd9\xbf'
p1687
tp1688
Rp1689
ssS'STABLER FRANK'
p1690
(dp1691
g3
g5
sg4
g5
sg6
I16514
sg7
I00
sg8
g5
sg9
S'frank.stabler@enron.com'
p1692
sg11
g5
sg12
g13
(g17
S'm\xd4\xc9Ik\x06\xe4\xbf'
p1693
tp1694
Rp1695
sg23
g5
sg24
g5
sg25
g5
sg26
g5
sg27
I356071
sg28
I94
sg29
g5
sg30
I500000
sg31
I511734
sg32
g5
sg33
g5
sg34
I511734
sg35
I239502
sg36
I1112087
sg37
g5
sg38
g13
(g17
S'\xe7\x9a\xd5\x12Ua\xc7\xbf'
p1696
tp1697
Rp1698
sg42
g13
(g17
S'\xe0\xa3[D\xbfI\xdb\xbf'
p1699
tp1700
Rp1701
sg46
g13
(g17
S'=\x96>\xe5{\x1e\xdd\xbf'
p1702
tp1703
Rp1704
sg50
g13
(g17
S'D\x06\xb6\xb7{\xc0\xd9\xbf'
p1705
tp1706
Rp1707
ssS'SKILLING JEFFREY K'
p1708
(dp1709
g3
I3627
sg4
g5
sg6
I29336
sg7
I01
sg8
g5
sg9
S'jeff.skilling@enron.com'
p1710
sg11
I1920000
sg12
g13
(g17
S'\xea\x8b\x15\x7f\xf5b\xf3?'
p1711
tp1712
Rp1713
sg23
g5
sg24
I2042
sg25
g5
sg26
I108
sg27
I22122
sg28
I95
sg29
g5
sg30
I5600000
sg31
I26093672
sg32
I88
sg33
I30
sg34
I6843672
sg35
I1111258
sg36
I8682716
sg37
I19250000
sg38
g13
(g17
S'\xbf4\xdfSd\xca\xeb?'
p1714
tp1715
Rp1716
sg42
g13
(g17
S'm%[V\x82P\xa9\xbf'
p1717
tp1718
Rp1719
sg46
g13
(g17
S'Rw\xf4\x8d$A\x16@'
p1720
tp1721
Rp1722
sg50
g13
(g17
S'*\x93\x86\x19\xdaD\xa2?'
p1723
tp1724
Rp1725
ssS'BLAKE JR. NORMAN P'
p1726
(dp1727
g3
g5
sg4
g5
sg6
I1279
sg7
I00
sg8
I-113784
sg9
g5
sg11
g5
sg12
g13
(g17
S'm\xd4\xc9Ik\x06\xe4\xbf'
p1728
tp1729
Rp1730
sg23
g5
sg24
g5
sg25
g5
sg26
g5
sg27
g5
sg28
I96
sg29
I113784
sg30
g5
sg31
g5
sg32
g5
sg33
g5
sg34
g5
sg35
g5
sg36
I1279
sg37
g5
sg38
g13
(g17
S'M\xf5R\xeb\xcc\xd4\xc9\xbf'
p1731
tp1732
Rp1733
sg42
g13
(g17
S'\xe0\xa3[D\xbfI\xdb\xbf'
p1734
tp1735
Rp1736
sg46
g13
(g17
S'A<\xc6\xfda"\xe1\xbf'
p1737
tp1738
Rp1739
sg50
g13
(g17
S'D\x06\xb6\xb7{\xc0\xd9\xbf'
p1740
tp1741
Rp1742
ssS'SHERRICK JEFFREY B'
p1743
(dp1744
g3
I613
sg4
g5
sg6
g5
sg7
I00
sg8
g5
sg9
S'jeffrey.sherrick@enron.com'
p1745
sg11
g5
sg12
g13
(g17
S' I\x19\x876\xc9\xc3\xbf'
p1746
tp1747
Rp1748
sg23
g5
sg24
I583
sg25
g5
sg26
I25
sg27
g5
sg28
I97
sg29
g5
sg30
g5
sg31
I1832468
sg32
I39
sg33
I18
sg34
I405999
sg35
g5
sg36
g5
sg37
I1426469
sg38
g13
(g17
S'\x1e\xb2e\x83\xb8\x10\xd2\xbf'
p1749
tp1750
Rp1751
sg42
g13
(g17
S'\xc5}\xb1|\x84\xbb\xe0?'
p1752
tp1753
Rp1754
sg46
g13
(g17
S'\x91@>\xae+%\xd1\xbf'
p1755
tp1756
Rp1757
sg50
g13
(g17
S'\x0e\\fp\xc1^\xf1?'
p1758
tp1759
Rp1760
ssS'PRENTICE JAMES'
p1761
(dp1762
g3
g5
sg4
I564348
sg6
g5
sg7
I00
sg8
g5
sg9
S'james.prentice@enron.com'
p1763
sg11
g5
sg12
g13
(g17
S'm\xd4\xc9Ik\x06\xe4\xbf'
p1764
tp1765
Rp1766
sg23
g5
sg24
g5
sg25
g5
sg26
g5
sg27
g5
sg28
I98
sg29
g5
sg30
g5
sg31
I1095040
sg32
g5
sg33
g5
sg34
I208809
sg35
g5
sg36
I564348
sg37
I886231
sg38
g13
(g17
S'\xd7\x06\x17\xa7\t$\xc4\xbf'
p1767
tp1768
Rp1769
sg42
g13
(g17
S'\xe0\xa3[D\xbfI\xdb\xbf'
p1770
tp1771
Rp1772
sg46
g13
(g17
S'\xd7\xc5$p\xe0\xd4\xd1\xbf'
p1773
tp1774
Rp1775
sg50
g13
(g17
S'D\x06\xb6\xb7{\xc0\xd9\xbf'
p1776
tp1777
Rp1778
ssS'GRAY RODNEY'
p1779
(dp1780
g3
g5
sg4
I93585
sg6
g5
sg7
I00
sg8
g5
sg9
g5
sg11
I365625
sg12
g13
(g17
S'm\xd4\xc9Ik\x06\xe4\xbf'
p1781
tp1782
Rp1783
sg23
g5
sg24
g5
sg25
g5
sg26
g5
sg27
I680833
sg28
I99
sg29
g5
sg30
g5
sg31
g5
sg32
g5
sg33
g5
sg34
g5
sg35
I6615
sg36
I1146658
sg37
g5
sg38
g13
(g17
S'c\xf44\xbfA\x7f\xc8\xbf'
p1784
tp1785
Rp1786
sg42
g13
(g17
S'\xe0\xa3[D\xbfI\xdb\xbf'
p1787
tp1788
Rp1789
sg46
g13
(g17
S'5(\xdd\xf4\xb0\xa0\xe0\xbf'
p1790
tp1791
Rp1792
sg50
g13
(g17
S'D\x06\xb6\xb7{\xc0\xd9\xbf'
p1793
tp1794
Rp1795
ssS'PICKERING MARK R'
p1796
(dp1797
g3
I898
sg4
g5
sg6
I31653
sg7
I00
sg8
g5
sg9
S'mark.pickering@enron.com'
p1798
sg11
g5
sg12
g13
(g17
S'\x1e6\xcb\xcb\x04\xfe\x9d?'
p1799
tp1800
Rp1801
sg23
g5
sg24
I728
sg25
I400000
sg26
I67
sg27
g5
sg28
I100
sg29
g5
sg30
I300000
sg31
I28798
sg32
I7
sg33
I0
sg34
g5
sg35
I655037
sg36
I1386690
sg37
I28798
sg38
g13
(g17
S'\xb0\xa57\xa6vB\xc4\xbf'
p1802
tp1803
Rp1804
sg42
g13
(g17
S'\xe0\xa3[D\xbfI\xdb\xbf'
p1805
tp1806
Rp1807
sg46
g13
(g17
S'\xcb=/\x0e\xdaf\xe2\xbf'
p1808
tp1809
Rp1810
sg50
g13
(g17
S'\xc1\x85P\xfd7(\xd6\xbf'
p1811
tp1812
Rp1813
ssS'NOLES JAMES L'
p1814
(dp1815
g3
g5
sg4
I774401
sg6
g5
sg7
I00
sg8
g5
sg9
g5
sg11
g5
sg12
g13
(g17
S'm\xd4\xc9Ik\x06\xe4\xbf'
p1816
tp1817
Rp1818
sg23
I-94556
sg24
g5
sg25
g5
sg26
g5
sg27
g5
sg28
I101
sg29
g5
sg30
g5
sg31
I368705
sg32
g5
sg33
g5
sg34
I463261
sg35
g5
sg36
I774401
sg37
g5
sg38
g13
(g17
S'\xc8\xb4\xdaI\xdc\xaf\xc8\xbf'
p1819
tp1820
Rp1821
sg42
g13
(g17
S'\xe0\xa3[D\xbfI\xdb\xbf'
p1822
tp1823
Rp1824
sg46
g13
(g17
S'\x0c\x0c\xe6K\xc4\x15\xdf\xbf'
p1825
tp1826
Rp1827
sg50
g13
(g17
S'D\x06\xb6\xb7{\xc0\xd9\xbf'
p1828
tp1829
Rp1830
ssS'KEAN STEVEN J'
p1831
(dp1832
g3
I12754
sg4
g5
sg6
I41953
sg7
I00
sg8
g5
sg9
S'steven.kean@enron.com'
p1833
sg11
I300000
sg12
g13
(g17
S'&j\xfa\x9e\x0b\x87\x07@'
p1834
tp1835
Rp1836
sg23
g5
sg24
I3639
sg25
g5
sg26
I6759
sg27
I1231
sg28
I102
sg29
g5
sg30
I1000000
sg31
I6153642
sg32
I140
sg33
I387
sg34
I4131594
sg35
I404338
sg36
I1747522
sg37
I2022048
sg38
g13
(g17
S'\xcc3#\x87"\x9a\xc0?'
p1837
tp1838
Rp1839
sg42
g13
(g17
S'S\xbeL\x0f\r\xb8\xe1?'
p1840
tp1841
Rp1842
sg46
g13
(g17
S'\xe8E8j\xb1V\xc0?'
p1843
tp1844
Rp1845
sg50
g13
(g17
S'\xc1j(\xc4\xa01\xdd\xbf'
p1846
tp1847
Rp1848
ssS'FOWLER PEGGY'
p1849
(dp1850
g3
I517
sg4
g5
sg6
g5
sg7
I00
sg8
g5
sg9
S'kulvinder.fowler@enron.com'
p1851
sg11
g5
sg12
g13
(g17
S'RQW\xe7\x04\x85\xe7\xbf'
p1852
tp1853
Rp1854
sg23
g5
sg24
I10
sg25
g5
sg26
I36
sg27
g5
sg28
I103
sg29
g5
sg30
g5
sg31
I1884748
sg32
I0
sg33
I0
sg34
I560170
sg35
g5
sg36
g5
sg37
I1324578
sg38
g13
(g17
S'\xa1\x12}\x0c\x1ev\xd2\xbf'
p1855
tp1856
Rp1857
sg42
g13
(g17
S'V\xaa\x08\xce\xea\xab\xd9\xbf'
p1858
tp1859
Rp1860
sg46
g13
(g17
S'\x82\xae\x18\x9f\xfa\x8c\xd1\xbf'
p1861
tp1862
Rp1863
sg50
g13
(g17
S'Om\x00\r\x8b\x85\xde\xbf'
p1864
tp1865
Rp1866
ssS'WASAFF GEORGE'
p1867
(dp1868
g3
I400
sg4
I831299
sg6
g5
sg7
I00
sg8
I-583325
sg9
S'george.wasaff@enron.com'
p1869
sg11
I200000
sg12
g13
(g17
S'\xac\xc1-\xf4\x88\xa4\xd4\xbf'
p1870
tp1871
Rp1872
sg23
g5
sg24
I337
sg25
g5
sg26
I30
sg27
I1425
sg28
I104
sg29
g5
sg30
I325000
sg31
I2056427
sg32
I22
sg33
I7
sg34
I388167
sg35
I259996
sg36
I1034395
sg37
I1668260
sg38
g13
(g17
S'\xdc\xef@\xba\x02 \xbd\xbf'
p1873
tp1874
Rp1875
sg42
g13
(g17
S'\x81S9\x89t\xc0\xd7?'
p1876
tp1877
Rp1878
sg46
g13
(g17
S'4\x19,\x15-\x1d\x99\xbf'
p1879
tp1880
Rp1881
sg50
g13
(g17
S'x5\x95\x89G\xa3\x80\xbf'
p1882
tp1883
Rp1884
ssS'WHITE JR THOMAS E'
p1885
(dp1886
g3
g5
sg4
g5
sg6
I81353
sg7
I00
sg8
g5
sg9
S'thomas.white@enron.com'
p1887
sg11
g5
sg12
g13
(g17
S'm\xd4\xc9Ik\x06\xe4\xbf'
p1888
tp1889
Rp1890
sg23
g5
sg24
g5
sg25
g5
sg26
g5
sg27
I1085463
sg28
I105
sg29
g5
sg30
I450000
sg31
I15144123
sg32
g5
sg33
g5
sg34
I13847074
sg35
I317543
sg36
I1934359
sg37
I1297049
sg38
g13
(g17
S'\x9f6\x04"\x1c\x93\xc2?'
p1891
tp1892
Rp1893
sg42
g13
(g17
S'\xe0\xa3[D\xbfI\xdb\xbf'
p1894
tp1895
Rp1896
sg46
g13
(g17
S'\x1e9\xa0\x8azE\xf6?'
p1897
tp1898
Rp1899
sg50
g13
(g17
S'D\x06\xb6\xb7{\xc0\xd9\xbf'
p1900
tp1901
Rp1902
ssS'CHRISTODOULOU DIOMEDES'
p1903
(dp1904
g3
g5
sg4
g5
sg6
g5
sg7
I00
sg8
g5
sg9
S'diomedes.christodoulou@enron.com'
p1905
sg11
g5
sg12
g13
(g17
S'm\xd4\xc9Ik\x06\xe4\xbf'
p1906
tp1907
Rp1908
sg23
g5
sg24
g5
sg25
g5
sg26
g5
sg27
g5
sg28
I106
sg29
g5
sg30
g5
sg31
I6077885
sg32
g5
sg33
g5
sg34
I950730
sg35
g5
sg36
g5
sg37
I5127155
sg38
g13
(g17
S'\xc7\x02\xd4P!\xf8\xa9?'
p1909
tp1910
Rp1911
sg42
g13
(g17
S'\xe0\xa3[D\xbfI\xdb\xbf'
p1912
tp1913
Rp1914
sg46
g13
(g17
S'8\x90J\xd6\xbd\xcc\xed?'
p1915
tp1916
Rp1917
sg50
g13
(g17
S'D\x06\xb6\xb7{\xc0\xd9\xbf'
p1918
tp1919
Rp1920
ssS'ALLEN PHILLIP K'
p1921
(dp1922
g3
I2902
sg4
I2869717
sg6
I13868
sg7
I00
sg8
I-3081055
sg9
S'phillip.allen@enron.com'
p1923
sg11
I304805
sg12
g13
(g17
S'\xd2\xc9\xe7\xa71\xc3\xe5?'
p1924
tp1925
Rp1926
sg23
I-126027
sg24
I1407
sg25
g5
sg26
I2195
sg27
I152
sg28
I107
sg29
g5
sg30
I4175000
sg31
I1729541
sg32
I47
sg33
I65
sg34
I126027
sg35
I201955
sg36
I4484442
sg37
I1729541
sg38
g13
(g17
S'C\xf0\xdbH\x9a\x80\xba\xbf'
p1927
tp1928
Rp1929
sg42
g13
(g17
S'\xe8\x0c\xf3I\xe5o\xd3?'
p1930
tp1931
Rp1932
sg46
g13
(g17
S'\xdc\xdc,\x8d}\x0f\xbc\xbf'
p1933
tp1934
Rp1935
sg50
g13
(g17
S"\x94gap'&\xdd\xbf"
p1936
tp1937
Rp1938
ssS'SHARP VICTORIA T'
p1939
(dp1940
g3
I3136
sg4
I187469
sg6
I116337
sg7
I00
sg8
g5
sg9
S'vicki.sharp@enron.com'
p1941
sg11
I422158
sg12
g13
(g17
S'\x9b\x15l\xcd\xfd8\xfc?'
p1942
tp1943
Rp1944
sg23
g5
sg24
I2477
sg25
g5
sg26
I136
sg27
I2401
sg28
I108
sg29
g5
sg30
I600000
sg31
I494136
sg32
I24
sg33
I6
sg34
I213063
sg35
I248146
sg36
I1576511
sg37
I281073
sg38
g13
(g17
S'\xc5\xf4y:(\xb9\xdd\xbf'
p1945
tp1946
Rp1947
sg42
g13
(g17
S'>\xd9.\xf6\x80\xd1\xd5\xbf'
p1948
tp1949
Rp1950
sg46
g13
(g17
S'\x0f\xb4/\xebbg\xdd\xbf'
p1951
tp1952
Rp1953
sg50
g13
(g17
S'Y\xbb.4\x8d5\xd3\xbf'
p1954
tp1955
Rp1956
ssS'JAEDICKE ROBERT'
p1957
(dp1958
g3
g5
sg4
g5
sg6
g5
sg7
I00
sg8
I-25000
sg9
g5
sg11
g5
sg12
g13
(g17
S'm\xd4\xc9Ik\x06\xe4\xbf'
p1959
tp1960
Rp1961
sg23
I-44093
sg24
g5
sg25
g5
sg26
g5
sg27
g5
sg28
I109
sg29
I108750
sg30
g5
sg31
I431750
sg32
g5
sg33
g5
sg34
I44093
sg35
g5
sg36
I83750
sg37
I431750
sg38
g13
(g17
S'\xe2OI\xe2\x7f4\xc7\xbf'
p1962
tp1963
Rp1964
sg42
g13
(g17
S'\xe0\xa3[D\xbfI\xdb\xbf'
p1965
tp1966
Rp1967
sg46
g13
(g17
S'\xb3\xe3\xccR\xe1\xb5\xda\xbf'
p1968
tp1969
Rp1970
sg50
g13
(g17
S'D\x06\xb6\xb7{\xc0\xd9\xbf'
p1971
tp1972
Rp1973
ssS'WINOKUR JR. HERBERT S'
p1974
(dp1975
g3
g5
sg4
g5
sg6
I1413
sg7
I00
sg8
I-25000
sg9
g5
sg11
g5
sg12
g13
(g17
S'm\xd4\xc9Ik\x06\xe4\xbf'
p1976
tp1977
Rp1978
sg23
g5
sg24
g5
sg25
g5
sg26
g5
sg27
g5
sg28
I110
sg29
I108579
sg30
g5
sg31
g5
sg32
g5
sg33
g5
sg34
g5
sg35
g5
sg36
I84992
sg37
g5
sg38
g13
(g17
S'L>i,\x94\xd6\xc9\xbf'
p1979
tp1980
Rp1981
sg42
g13
(g17
S'\xe0\xa3[D\xbfI\xdb\xbf'
p1982
tp1983
Rp1984
sg46
g13
(g17
S'\x18\xed\xf51//\xe1\xbf'
p1985
tp1986
Rp1987
sg50
g13
(g17
S'D\x06\xb6\xb7{\xc0\xd9\xbf'
p1988
tp1989
Rp1990
ssS'BROWN MICHAEL'
p1991
(dp1992
g3
I1486
sg4
g5
sg6
I49288
sg7
I00
sg8
g5
sg9
S'michael.brown@enron.com'
p1993
sg11
g5
sg12
g13
(g17
S'\xdb\xbeBHSW\x9a?'
p1994
tp1995
Rp1996
sg23
g5
sg24
I761
sg25
g5
sg26
I41
sg27
g5
sg28
I111
sg29
g5
sg30
g5
sg31
g5
sg32
I13
sg33
I1
sg34
g5
sg35
g5
sg36
I49288
sg37
g5
sg38
g13
(g17
S'6#c{\xa0\xc6\xe1\xbf'
p1997
tp1998
Rp1999
sg42
g13
(g17
S'\xcbq\xf4\xfe\xf7P\xd8\xbf'
p2000
tp2001
Rp2002
sg46
g13
(g17
S'\xadsn\x7f\xbdM\xe1\xbf'
p2003
tp2004
Rp2005
sg50
g13
(g17
S'f/?2Zd\xc4\xbf'
p2006
tp2007
Rp2008
ssS'BADUM JAMES P'
p2009
(dp2010
g3
g5
sg4
I178980
sg6
I3486
sg7
I00
sg8
g5
sg9
g5
sg11
g5
sg12
g13
(g17
S'm\xd4\xc9Ik\x06\xe4\xbf'
p2011
tp2012
Rp2013
sg23
g5
sg24
g5
sg25
g5
sg26
g5
sg27
g5
sg28
I112
sg29
g5
sg30
g5
sg31
I257817
sg32
g5
sg33
g5
sg34
g5
sg35
g5
sg36
I182466
sg37
I257817
sg38
g13
(g17
S'\xdf\xe9\xdb!TU\xc8\xbf'
p2014
tp2015
Rp2016
sg42
g13
(g17
S'\xe0\xa3[D\xbfI\xdb\xbf'
p2017
tp2018
Rp2019
sg46
g13
(g17
S"AT2'\x10\x03\xde\xbf"
p2020
tp2021
Rp2022
sg50
g13
(g17
S'D\x06\xb6\xb7{\xc0\xd9\xbf'
p2023
tp2024
Rp2025
ssS'HUGHES JAMES A'
p2026
(dp2027
g3
I719
sg4
g5
sg6
g5
sg7
I00
sg8
g5
sg9
S'james.hughes@enron.com'
p2028
sg11
g5
sg12
g13
(g17
S'\\\xae\x0c_u\x85\xb8\xbf'
p2029
tp2030
Rp2031
sg23
g5
sg24
I589
sg25
g5
sg26
I34
sg27
g5
sg28
I113
sg29
g5
sg30
g5
sg31
I1118394
sg32
I35
sg33
I5
sg34
I363428
sg35
g5
sg36
g5
sg37
I754966
sg38
g13
(g17
S'b4!\xe9\xe6\x85\xc4\xbf'
p2032
tp2033
Rp2034
sg42
g13
(g17
S"\x8f'\x8f\xa1#\x06\xbc\xbf"
p2035
tp2036
Rp2037
sg46
g13
(g17
S')\x97\x05Tl\xf5\xd2\xbf'
p2038
tp2039
Rp2040
sg50
g13
(g17
S';#d\x9e\xa8U\xc3?'
p2041
tp2042
Rp2043
ssS'REYNOLDS LAWRENCE'
p2044
(dp2045
g3
g5
sg4
I51365
sg6
I8409
sg7
I00
sg8
I-200000
sg9
g5
sg11
I156250
sg12
g13
(g17
S'\xe2\x00\r\x9d\xff\xd7\xe7\xbf'
p2046
tp2047
Rp2048
sg23
I-140264
sg24
g5
sg25
g5
sg26
g5
sg27
I202052
sg28
I114
sg29
g5
sg30
I100000
sg31
I4221891
sg32
g5
sg33
g5
sg34
I201483
sg35
I76399
sg36
I394475
sg37
I4160672
sg38
g13
(g17
S'\x7f\xe1.\x10\r\xdd\xc7?'
p2049
tp2050
Rp2051
sg42
g13
(g17
S'V\xaa\x08\xce\xea\xab\xd9\xbf'
p2052
tp2053
Rp2054
sg46
g13
(g17
S'\x9a\xef\xcbwt\xba\xc8?'
p2055
tp2056
Rp2057
sg50
g13
(g17
S'Om\x00\r\x8b\x85\xde\xbf'
p2058
tp2059
Rp2060
ssS'DIMICHELE RICHARD G'
p2061
(dp2062
g3
g5
sg4
g5
sg6
I35812
sg7
I00
sg8
g5
sg9
S'richard.dimichele@enron.com'
p2063
sg11
I694862
sg12
g13
(g17
S'm\xd4\xc9Ik\x06\xe4\xbf'
p2064
tp2065
Rp2066
sg23
g5
sg24
g5
sg25
g5
sg26
g5
sg27
I374689
sg28
I115
sg29
g5
sg30
I1000000
sg31
I8317782
sg32
g5
sg33
g5
sg34
I126027
sg35
I262788
sg36
I2368151
sg37
I8191755
sg38
g13
(g17
S'=\xce\xabk{\x82\xc8?'
p2067
tp2068
Rp2069
sg42
g13
(g17
S'\xe0\xa3[D\xbfI\xdb\xbf'
p2070
tp2071
Rp2072
sg46
g13
(g17
S'\x84\xa6\xd1\x0ezI\xfb?'
p2073
tp2074
Rp2075
sg50
g13
(g17
S'D\x06\xb6\xb7{\xc0\xd9\xbf'
p2076
tp2077
Rp2078
ssS'BHATNAGAR SANJAY'
p2079
(dp2080
g3
I523
sg4
g466
sg6
I137864
sg7
I00
sg8
g466
sg9
S'sanjay.bhatnagar@enron.com'
p2081
sg11
g466
sg12
g13
(g17
S'\x1b\x1a\x95L\x1c\xac\xd1\xbf'
p2082
tp2083
Rp2084
sg23
I-2604490
sg24
I463
sg25
g466
sg26
I29
sg27
g466
sg28
I116
sg29
g466
sg30
g466
sS'total_stock_value'
p2085
I15456290
sg32
I0
sg33
I1
sg34
I2604490
sg35
g466
sg36
I137864
sg37
I15456290
sg38
g13
(g17
S'w\x12;\xddb2\x02@'
p2086
tp2087
Rp2088
sg42
g13
(g17
S'\xd7^\xf6\xe7!\xd2\xd5\xbf'
p2089
tp2090
Rp2091
sg46
g13
(g17
S'c\xbfG\x0emK\x02@'
p2092
tp2093
Rp2094
sg50
g13
(g17
S'Om\x00\r\x8b\x85\xde\xbf'
p2095
tp2096
Rp2097
ssS'CARTER REBECCA C'
p2098
(dp2099
g3
I312
sg4
g5
sg6
g5
sg7
I00
sg8
I-159792
sg9
S'rebecca.carter@enron.com'
p2100
sg11
I75000
sg12
g13
(g17
S'\xc9\xde\x07\xe1B\xc3\xdc\xbf'
p2101
tp2102
Rp2103
sg23
I-307301
sg24
I196
sg25
g5
sg26
I15
sg27
I540
sg28
I117
sg29
g5
sg30
I300000
sg31
g5
sg32
I29
sg33
I7
sg34
I307301
sg35
I261809
sg36
I477557
sg37
g5
sg38
g13
(g17
S'R)\xf6\xf4C\xa5\xc8\xbf'
p2104
tp2105
Rp2106
sg42
g13
(g17
S'-j\x17\xad\xe5\x12\xe3?'
p2107
tp2108
Rp2109
sg46
g13
(g17
S'\x05TuU[)\xdf\xbf'
p2110
tp2111
Rp2112
sg50
g13
(g17
S'\xbe<\xa4\x8ceb\xe4?'
p2113
tp2114
Rp2115
ssS'BUCHANAN HAROLD G'
p2116
(dp2117
g3
I1088
sg4
g5
sg6
I600
sg7
I00
sg8
g5
sg9
S'john.buchanan@enron.com'
p2118
sg11
I304805
sg12
g13
(g17
S'\x19\xef\xc2\xa9\xe0\\\xe3\xbf'
p2119
tp2120
Rp2121
sg23
g5
sg24
I23
sg25
g5
sg26
I125
sg27
I1215
sg28
I118
sg29
g5
sg30
I500000
sg31
I1014505
sg32
I0
sg33
I0
sg34
I189041
sg35
I248017
sg36
I1054637
sg37
I825464
sg38
g13
(g17
S'\xd1\xe3g\xd9\xe9\xc7\xc3\xbf'
p2122
tp2123
Rp2124
sg42
g13
(g17
S'\xe0\xa3[D\xbfI\xdb\xbf'
p2125
tp2126
Rp2127
sg46
g13
(g17
S'\x9bv\xcb\xd4.\x88\xd1\xbf'
p2128
tp2129
Rp2130
sg50
g13
(g17
S'D\x06\xb6\xb7{\xc0\xd9\xbf'
p2131
tp2132
Rp2133
ssS'YEAP SOON'
p2134
(dp2135
g3
g5
sg4
g5
sg6
I55097
sg7
I00
sg8
g5
sg9
g5
sg11
g5
sg12
g13
(g17
S'm\xd4\xc9Ik\x06\xe4\xbf'
p2136
tp2137
Rp2138
sg23
g5
sg24
g5
sg25
g5
sg26
g5
sg27
g5
sg28
I119
sg29
g5
sg30
g5
sg31
I192758
sg32
g5
sg33
g5
sg34
g5
sg35
g5
sg36
I55097
sg37
I192758
sg38
g13
(g17
S'\xe4\x06\\=\x88\xb6\xc8\xbf'
p2139
tp2140
Rp2141
sg42
g13
(g17
S'\xe0\xa3[D\xbfI\xdb\xbf'
p2142
tp2143
Rp2144
sg46
g13
(g17
S'\x98x\x89\x822\x1e\xdf\xbf'
p2145
tp2146
Rp2147
sg50
g13
(g17
S'D\x06\xb6\xb7{\xc0\xd9\xbf'
p2148
tp2149
Rp2150
ssS'MURRAY JULIA H'
p2151
(dp2152
g3
I2192
sg4
g5
sg6
I57580
sg7
I00
sg8
g5
sg9
S'julia.murray@enron.com'
p2153
sg11
I125000
sg12
g13
(g17
S"/\xd4\x08'\xa1\x14\xd6\xbf"
p2154
tp2155
Rp2156
sg23
g5
sg24
I395
sg25
g5
sg26
I45
sg27
I330
sg28
I120
sg29
g5
sg30
I400000
sg31
I597461
sg32
I11
sg33
I2
sg34
I196983
sg35
I229284
sg36
I812194
sg37
I400478
sg38
g13
(g17
S'ZW/\xc4a:\xdd\xbf'
p2157
tp2158
Rp2159
sg42
g13
(g17
S'\x10XH\xc3\x82\xd5\xd7\xbf'
p2160
tp2161
Rp2162
sg46
g13
(g17
S'\x86\x17\x19\xaa\x14\x9f\xdc\xbf'
p2163
tp2164
Rp2165
sg50
g13
(g17
S',,n\xf6\x1d\xb4\xcd\xbf'
p2166
tp2167
Rp2168
ssS'GARLAND C KEVIN'
p2169
(dp2170
g3
I209
sg4
g5
sg6
I48405
sg7
I00
sg8
g5
sg9
S'kevin.garland@enron.com'
p2171
sg11
I375304
sg12
g13
(g17
S'\x14\x0e4l\xa1\xcc\xdd\xbf'
p2172
tp2173
Rp2174
sg23
g5
sg24
I178
sg25
g5
sg26
I44
sg27
I60814
sg28
I121
sg29
g5
sg30
I850000
sg31
I896153
sg32
I10
sg33
I27
sg34
I259907
sg35
I231946
sg36
I1566469
sg37
I636246
sg38
g13
(g17
S'N\xe6g\xa8>0\xc4\xbf'
p2175
tp2176
Rp2177
sg42
g13
(g17
S'h6\x9a|\xe2\xd7\x15@'
p2178
tp2179
Rp2180
sg46
g13
(g17
S'\x86\x04s\xfa\x03c\xd3\xbf'
p2181
tp2182
Rp2183
sg50
g13
(g17
S'M\x89a\xeb\x9b\xee\xd1\xbf'
p2184
tp2185
Rp2186
ssS'DODSON KEITH'
p2187
(dp2188
g3
I176
sg4
g5
sg6
I28164
sg7
I00
sg8
g5
sg9
S'keith.dodson@enron.com'
p2189
sg11
g5
sg12
g13
(g17
S'\xd9\x95\xc2\xb8\x08&\xe4\xbf'
p2190
tp2191
Rp2192
sg23
g5
sg24
I114
sg25
g5
sg26
I14
sg27
I774
sg28
I122
sg29
g5
sg30
I70000
sg31
g5
sg32
I10
sg33
I3
sg34
g5
sg35
I221003
sg36
I319941
sg37
g5
sg38
g13
(g17
S'\x00\x1e\x99k\xfc\xaa\xe1\xbf'
p2193
tp2194
Rp2195
sg42
g13
(g17
S'EPF\x81BP\xc1?'
p2196
tp2197
Rp2198
sg46
g13
(g17
S'c,83M6\xe1\xbf'
p2199
tp2200
Rp2201
sg50
g13
(g17
S'\xc23\x02\xb5\xa7\x88\xce?'
p2202
tp2203
Rp2204
ssS'YEAGER F SCOTT'
p2205
(dp2206
g3
g5
sg4
g5
sg6
I53947
sg7
I01
sg8
g5
sg9
S'scott.yeager@enron.com'
p2207
sg11
g5
sg12
g13
(g17
S'm\xd4\xc9Ik\x06\xe4\xbf'
p2208
tp2209
Rp2210
sg23
g5
sg24
g5
sg25
g5
sg26
g5
sg27
I147950
sg28
I123
sg29
g5
sg30
g5
sg31
I11884758
sg32
g5
sg33
g5
sg34
I3576206
sg35
I158403
sg36
I360300
sg37
I8308552
sg38
g13
(g17
S'\xdf\x98\x9a\x89y\xe5\xcf?'
p2211
tp2212
Rp2213
sg42
g13
(g17
S'\xe0\xa3[D\xbfI\xdb\xbf'
p2214
tp2215
Rp2216
sg46
g13
(g17
S'\xf0\xc0B/\x0b\x98\x00@'
p2217
tp2218
Rp2219
sg50
g13
(g17
S'D\x06\xb6\xb7{\xc0\xd9\xbf'
p2220
tp2221
Rp2222
ssS'HIRKO JOSEPH'
p2223
(dp2224
g3
g5
sg4
I10259
sg6
I77978
sg7
I01
sg8
g5
sg9
S'joe.hirko@enron.com'
p2225
sg11
g5
sg12
g13
(g17
S'\xe2\x00\r\x9d\xff\xd7\xe7\xbf'
p2226
tp2227
Rp2228
sg23
g5
sg24
g5
sg25
g5
sg26
g5
sg27
I2856
sg28
I124
sg29
g5
sg30
g5
sg31
I30766064
sg32
g5
sg33
g5
sg34
g5
sg35
g5
sg36
I91093
sg37
I30766064
sg38
g13
(g17
S'b%\xc2\x95\x8c\xcd\x12@'
p2229
tp2230
Rp2231
sg42
g13
(g17
S'V\xaa\x08\xce\xea\xab\xd9\xbf'
p2232
tp2233
Rp2234
sg46
g13
(g17
S'/&h\x07\x80\xdc\x12@'
p2235
tp2236
Rp2237
sg50
g13
(g17
S'Om\x00\r\x8b\x85\xde\xbf'
p2238
tp2239
Rp2240
ssS'DIETRICH JANET R'
p2241
(dp2242
g3
I2572
sg4
g5
sg6
I3475
sg7
I00
sg8
g5
sg9
S'janet.dietrich@enron.com'
p2243
sg11
I556416
sg12
g13
(g17
S'gL\xea\x8c\xf6^\xf1?'
p2244
tp2245
Rp2246
sg23
g5
sg24
I1902
sg25
g5
sg26
I63
sg27
I473
sg28
I125
sg29
g5
sg30
I600000
sg31
I1865087
sg32
I305
sg33
I14
sg34
I315068
sg35
I250100
sg36
I1410464
sg37
I1550019
sg38
g13
(g17
S'\xee\xda\xea\x05G\xf7\xbd\xbf'
p2247
tp2248
Rp2249
sg42
g13
(g17
S'\xe1\xff\\\x168\xd3\xc6\xbf'
p2250
tp2251
Rp2252
sg46
g13
(g17
S'\xd5\x01\xa3\x0ch\xfd\xae\xbf'
p2253
tp2254
Rp2255
sg50
g13
(g17
S'\xefJ/\xaeS\x9a\x01@'
p2256
tp2257
Rp2258
ssS'DERRICK JR. JAMES V'
p2259
(dp2260
g3
I2181
sg4
g5
sg6
I51124
sg7
I00
sg8
I-1284000
sg9
S'james.derrick@enron.com'
p2261
sg11
I484000
sg12
g13
(g17
S'U\xb1\xad\xb3\xdeP\xe4?'
p2262
tp2263
Rp2264
sg23
I-1787380
sg24
I1401
sg25
g5
sg26
I909
sg27
I7482
sg28
I126
sg29
g5
sg30
I800000
sg31
I8831913
sg32
I64
sg33
I20
sg34
I1787380
sg35
I492375
sg36
I550981
sg37
I8831913
sg38
g13
(g17
S'\x9c=\x7f\xd6\x1d\x93\xcf?'
p2265
tp2266
Rp2267
sg42
g13
(g17
S'\x13\xe1B\xc3N_\x81\xbf'
p2268
tp2269
Rp2270
sg46
g13
(g17
S'\xd5\x0ef\xf5\xa5\x8e\x00@'
p2271
tp2272
Rp2273
sg50
g13
(g17
S'\xf6\xdcc\x19RT\xd7\xbf'
p2274
tp2275
Rp2276
ssS'FREVERT MARK A'
p2277
(dp2278
g3
I3275
sg4
I6426990
sg6
I86987
sg7
I00
sg8
I-3367011
sg9
S'mark.frevert@enron.com'
p2279
sg11
I1617011
sg12
g13
(g17
S'=\x9d\xaf\x0c9p\x00@'
p2280
tp2281
Rp2282
sg23
g5
sg24
I2979
sg25
I2000000
sg26
I21
sg27
I7427621
sg28
I127
sg29
g5
sg30
I2000000
sg31
I14622185
sg32
I242
sg33
I6
sg34
I4188667
sg35
I1060932
sg36
I17252530
sg37
I10433518
sg38
g13
(g17
S'+v\xf5\x96\x8a\x98\xe5?'
p2283
tp2284
Rp2285
sg42
g13
(g17
S"\xc31'X\xdb\xf1\xd5\xbf"
p2286
tp2287
Rp2288
sg46
g13
(g17
S'\xea\xc7K\x9bM\x88\x05@'
p2289
tp2290
Rp2291
sg50
g13
(g17
S'\xb2c\xde&\x01,\x17@'
p2292
tp2293
Rp2294
ssS'PAI LOU L'
p2295
(dp2296
g3
g5
sg4
g5
sg6
I32047
sg7
I00
sg8
g5
sg9
S'lou.pai@enron.com'
p2297
sg11
g5
sg12
g13
(g17
S'm\xd4\xc9Ik\x06\xe4\xbf'
p2298
tp2299
Rp2300
sg23
g5
sg24
g5
sg25
g5
sg26
g5
sg27
I1829457
sg28
I128
sg29
g5
sg30
I1000000
sg31
I23817930
sg32
g5
sg33
g5
sg34
I8453763
sg35
I261879
sg36
I3123383
sg37
I15364167
sg38
g13
(g17
S'-\x97lT\x06M\xe6?'
p2301
tp2302
Rp2303
sg42
g13
(g17
S'\xe0\xa3[D\xbfI\xdb\xbf'
p2304
tp2305
Rp2306
sg46
g13
(g17
S'\xeaY\xecAm<\x12@'
p2307
tp2308
Rp2309
sg50
g13
(g17
S'D\x06\xb6\xb7{\xc0\xd9\xbf'
p2310
tp2311
Rp2312
ssS'BAY FRANKLIN R'
p2313
(dp2314
g3
g5
sg4
I260455
sg6
I129142
sg7
I00
sg8
I-201641
sg9
S'frank.bay@enron.com'
p2315
sg11
g5
sg12
g13
(g17
S'\xe2\x00\r\x9d\xff\xd7\xe7\xbf'
p2316
tp2317
Rp2318
sg23
I-82782
sg24
g5
sg25
g5
sg26
g5
sg27
I69
sg28
I129
sg29
g5
sg30
I400000
sg31
I63014
sg32
g5
sg33
g5
sg34
I145796
sg35
I239671
sg36
I827696
sg37
g5
sg38
g13
(g17
S')J\xaf\xa7\x9a\xf8\xe0\xbf'
p2319
tp2320
Rp2321
sg42
g13
(g17
S'V\xaa\x08\xce\xea\xab\xd9\xbf'
p2322
tp2323
Rp2324
sg46
g13
(g17
S'>\xe3L\x7f\x0f\x94\xe0\xbf'
p2325
tp2326
Rp2327
sg50
g13
(g17
S'Om\x00\r\x8b\x85\xde\xbf'
p2328
tp2329
Rp2330
ssS'HAYSLETT RODERICK J'
p2331
(dp2332
g3
I2649
sg4
g5
sg6
g5
sg7
I00
sg8
g5
sg9
S'rod.hayslett@enron.com'
p2333
sg11
g5
sg12
g13
(g17
S'\x87k\xbd\x8b\xef\xaa\xbc\xbf'
p2334
tp2335
Rp2336
sg23
g5
sg24
I571
sg25
g5
sg26
I1061
sg27
g5
sg28
I130
sg29
g5
sg30
g5
sg31
I346663
sg32
I35
sg33
I38
sg34
I346663
sg35
g5
sg36
g5
sg37
g5
sg38
g13
(g17
S'~J\x14A*\xfa\xc8\xbf'
p2337
tp2338
Rp2339
sg42
g13
(g17
S'\xf3\x81{,\xaa\x19\xcd?'
p2340
tp2341
Rp2342
sg46
g13
(g17
S"oe\xed+'\xeb\xdf\xbf"
p2343
tp2344
Rp2345
sg50
g13
(g17
S'p\xf2\x88G\xeb\x9d\xd8\xbf'
p2346
tp2347
Rp2348
ssS'FUGH JOHN L'
p2349
(dp2350
g3
g5
sg4
I50591
sg6
g5
sg7
I00
sg8
g5
sg9
g5
sg11
g5
sg12
g13
(g17
S'm\xd4\xc9Ik\x06\xe4\xbf'
p2351
tp2352
Rp2353
sg23
g5
sg24
g5
sg25
g5
sg26
g5
sg27
g5
sg28
I131
sg29
g5
sg30
g5
sg31
I176378
sg32
g5
sg33
g5
sg34
g5
sg35
g5
sg36
I50591
sg37
I176378
sg38
g13
(g17
S'\xfdu\xd1\xd6/\xcf\xc8\xbf'
p2354
tp2355
Rp2356
sg42
g13
(g17
S'\xe0\xa3[D\xbfI\xdb\xbf'
p2357
tp2358
Rp2359
sg46
g13
(g17
S'\xd4}\x0c*\xa6e\xdf\xbf'
p2360
tp2361
Rp2362
sg50
g13
(g17
S'D\x06\xb6\xb7{\xc0\xd9\xbf'
p2363
tp2364
Rp2365
ssS'FALLON JAMES B'
p2366
(dp2367
g3
I1755
sg4
g5
sg6
I95924
sg7
I00
sg8
g5
sg9
S'jim.fallon@enron.com'
p2368
sg11
I374347
sg12
g13
(g17
S'=\x99\xfc\t\xe3%\xec?'
p2369
tp2370
Rp2371
sg23
g5
sg24
I1604
sg25
g5
sg26
I75
sg27
I401481
sg28
I132
sg29
g5
sg30
I2500000
sg31
I2332399
sg32
I42
sg33
I37
sg34
I1392142
sg35
I304588
sg36
I3676340
sg37
I940257
sg38
g13
(g17
S'\xcd\x95P{~\xcb\xc7\xbf'
p2372
tp2373
Rp2374
sg42
g13
(g17
S'\x8e`1\xab\x8d\xc9\xd0?'
p2375
tp2376
Rp2377
sg46
g13
(g17
S'd\x9e\xf7v\xdb\xd7\xcb\xbf'
p2378
tp2379
Rp2380
sg50
g13
(g17
S'\x04\xff))\x9d\x81\xb5?'
p2381
tp2382
Rp2383
ssS'KOENIG MARK E'
p2384
(dp2385
g3
I2374
sg4
g5
sg6
I127017
sg7
I01
sg8
g5
sg9
S'mark.koenig@enron.com'
p2386
sg11
I300000
sg12
g13
(g17
S'\xc5\xbe,\x16\xfb\xae\xf6?'
p2387
tp2388
Rp2389
sg23
g5
sg24
I2271
sg25
g5
sg26
I61
sg27
I150458
sg28
I133
sg29
g5
sg30
I700000
sg31
I1920055
sg32
I53
sg33
I15
sg34
I1248318
sg35
I309946
sg36
I1587421
sg37
I671737
sg38
g13
(g17
S'\xd3X\xda\x16U\x90\xc1\xbf'
p2390
tp2391
Rp2392
sg42
g13
(g17
S'\xf9TP\x1aG\xb8\xc1\xbf'
p2393
tp2394
Rp2395
sg46
g13
(g17
S'\xaas\xfc\x1al\xe2\xc7\xbf'
p2396
tp2397
Rp2398
sg50
g13
(g17
S'l\xf7(cU\x92\xb0?'
p2399
tp2400
Rp2401
ssS'SAVAGE FRANK'
p2402
(dp2403
g3
g5
sg4
g5
sg6
g5
sg7
I00
sg8
I-121284
sg9
g5
sg11
g5
sg12
g13
(g17
S'\xe2\x00\r\x9d\xff\xd7\xe7\xbf'
p2404
tp2405
Rp2406
sg23
g5
sg24
g5
sg25
g5
sg26
g5
sg27
g5
sg28
I134
sg29
I125034
sg30
g5
sg31
g5
sg32
g5
sg33
g5
sg34
g5
sg35
g5
sg36
I3750
sg37
g5
sg38
g13
(g17
S'\x84\xe0\xc4\x1fz\xc4\xe1\xbf'
p2407
tp2408
Rp2409
sg42
g13
(g17
S'V\xaa\x08\xce\xea\xab\xd9\xbf'
p2410
tp2411
Rp2412
sg46
g13
(g17
S'\xe9-\xf8S\x89B\xe1\xbf'
p2413
tp2414
Rp2415
sg50
g13
(g17
S'Om\x00\r\x8b\x85\xde\xbf'
p2416
tp2417
Rp2418
ssS'IZZO LAWRENCE L'
p2419
(dp2420
g3
I496
sg4
g5
sg6
I28093
sg7
I00
sg8
g5
sg9
S'larry.izzo@enron.com'
p2421
sg11
I312500
sg12
g13
(g17
S'\xd7w\xdfc\x9a[\xd3\xbf'
p2422
tp2423
Rp2424
sg23
g5
sg24
I437
sg25
g5
sg26
I19
sg27
I1553729
sg28
I135
sg29
g5
sg30
g5
sg31
I5819980
sg32
I28
sg33
I5
sg34
I3654808
sg35
I85274
sg36
I1979596
sg37
I2165172
sg38
g13
(g17
S'\x9c\x83\x1c\x94\xdd\xb4\xc4?'
p2425
tp2426
Rp2427
sg42
g13
(g17
S'J\x12\x08~\xbdz\xb5\xbf'
p2428
tp2429
Rp2430
sg46
g13
(g17
S'\x03\x8ee\xd2\xee\x0f\xbd?'
p2431
tp2432
Rp2433
sg50
g13
(g17
S'\xa2D\x18sC\xf9\xef?'
p2434
tp2435
Rp2436
ssS'TILNEY ELIZABETH A'
p2437
(dp2438
g3
I460
sg4
g5
sg6
g5
sg7
I00
sg8
I-575000
sg9
S'elizabeth.tilney@enron.com'
p2439
sg11
I275000
sg12
g13
(g17
S'\xca\xd2\xe7\xd2)\x1e\xd7\xbf'
p2440
tp2441
Rp2442
sg23
g5
sg24
I379
sg25
g5
sg26
I19
sg27
I152055
sg28
I136
sg29
g5
sg30
I300000
sg31
I1168042
sg32
I10
sg33
I11
sg34
I576792
sg35
I247338
sg36
I399393
sg37
I591250
sg38
g13
(g17
S'\xcadB\xb7\x0e\xdc\xd8\xbf'
p2443
tp2444
Rp2445
sg42
g13
(g17
S'3\x93\xd6B\xd2|\xd6?'
p2446
tp2447
Rp2448
sg46
g13
(g17
S'\x07:@@\x89L\xd8\xbf'
p2449
tp2450
Rp2451
sg50
g13
(g17
S'L\xe8cs\xff\xbc\xa9?'
p2452
tp2453
Rp2454
ssS'MARTIN AMANDA K'
p2455
(dp2456
g3
I1522
sg4
I85430
sg6
I8211
sg7
I00
sg8
g5
sg9
S'a..martin@enron.com'
p2457
sg11
I5145434
sg12
g13
(g17
S'@\x87\x01W\x1a)\xc9\xbf'
p2458
tp2459
Rp2460
sg23
g5
sg24
I477
sg25
g5
sg26
I230
sg27
I2818454
sg28
I137
sg29
g5
sg30
g5
sg31
I2070306
sg32
I8
sg33
I0
sg34
g5
sg35
I349487
sg36
I8407016
sg37
I2070306
sg38
g13
(g17
S'\x14\x16\xa0+sf\xa8\xbf'
p2461
tp2462
Rp2463
sg42
g13
(g17
S'\xe0\xa3[D\xbfI\xdb\xbf'
p2464
tp2465
Rp2466
sg46
g13
(g17
S'\x03\x0c\xac\x11\x01\xf8\xc1?'
p2467
tp2468
Rp2469
sg50
g13
(g17
S'd\x83\xda\x06\x1c\x8e\xd8\xbf'
p2470
tp2471
Rp2472
ssS'BUY RICHARD B'
p2473
(dp2474
g3
I3523
sg4
I649584
sg6
g5
sg7
I00
sg8
I-694862
sg9
S'rick.buy@enron.com'
p2475
sg11
I769862
sg12
g13
(g17
S'\xbeX\xb6J\x8a\xe3\xf9?'
p2476
tp2477
Rp2478
sg23
g5
sg24
I2333
sg25
g5
sg26
I1053
sg27
I400572
sg28
I138
sg29
g5
sg30
I900000
sg31
I3444470
sg32
I156
sg33
I71
sg34
I901657
sg35
I330546
sg36
I2355702
sg37
I2542813
sg38
g13
(g17
S'\x86\x86B\xed\xbd\x0b\x82?'
p2479
tp2480
Rp2481
sg42
g13
(g17
S'\xcc\xa4\x97:\xd5\xd4\xcd?'
p2482
tp2483
Rp2484
sg46
g13
(g17
S'P\x1a\x7f\xe9\x9a\nQ\xbf'
p2485
tp2486
Rp2487
sg50
g13
(g17
S'\x89\x95@!W\x06\xd5\xbf'
p2488
tp2489
Rp2490
ssS'GRAMM WENDY L'
p2491
(dp2492
g3
g5
sg4
g5
sg6
g5
sg7
I00
sg8
g5
sg9
g5
sg11
g5
sg12
g13
(g17
S'\xe2\x00\r\x9d\xff\xd7\xe7\xbf'
p2493
tp2494
Rp2495
sg23
g5
sg24
g5
sg25
g5
sg26
g5
sg27
g5
sg28
I139
sg29
I119292
sg30
g5
sg31
g5
sg32
g5
sg33
g5
sg34
g5
sg35
g5
sg36
I119292
sg37
g5
sg38
g13
(g17
S'A\xef\xd5\xf5\xbf\xc6\xe1\xbf'
p2496
tp2497
Rp2498
sg42
g13
(g17
S'V\xaa\x08\xce\xea\xab\xd9\xbf'
p2499
tp2500
Rp2501
sg46
g13
(g17
S'\x18<\xbfl\xc7M\xe1\xbf'
p2502
tp2503
Rp2504
sg50
g13
(g17
S'Om\x00\r\x8b\x85\xde\xbf'
p2505
tp2506
Rp2507
ssS'CAUSEY RICHARD A'
p2508
(dp2509
g3
I1892
sg4
g5
sg6
I30674
sg7
I01
sg8
I-235000
sg9
S'richard.causey@enron.com'
p2510
sg11
I350000
sg12
g13
(g17
S'\xef\xdb\xe4\xb33\x9d\xe9?'
p2511
tp2512
Rp2513
sg23
g5
sg24
I1585
sg25
g5
sg26
I49
sg27
I307895
sg28
I140
sg29
g5
sg30
I1000000
sg31
I2502063
sg32
I58
sg33
I12
sg34
I2502063
sg35
I415189
sg36
I1868758
sg37
g5
sg38
g13
(g17
S'\xb90\x0c\t`\xb6\xc1\xbf'
p2514
tp2515
Rp2516
sg42
g13
(g17
S'L\xff<?_\x94\xc1\xbf'
p2517
tp2518
Rp2519
sg46
g13
(g17
S'\x96\t\x83/\xf7m\xca\xbf'
p2520
tp2521
Rp2522
sg50
g13
(g17
S'oV\x97{5\xf3\xcd?'
p2523
tp2524
Rp2525
ssS'TAYLOR MITCHELL S'
p2526
(dp2527
g3
I533
sg4
I227449
sg6
g5
sg7
I00
sg8
g5
sg9
S'mitchell.taylor@enron.com'
p2528
sg11
g5
sg12
g13
(g17
S'\xe8\xdb\x84\xa3<=\xdc\xbf'
p2529
tp2530
Rp2531
sg23
g5
sg24
I300
sg25
g5
sg26
I29
sg27
g5
sg28
I141
sg29
g5
sg30
I600000
sg31
I3745048
sg32
I0
sg33
I0
sg34
I563798
sg35
I265214
sg36
I1092663
sg37
I3181250
sg38
g13
(g17
S'\xf4\xe4\xd9\xd7\x8ef\xa9?'
p2532
tp2533
Rp2534
sg42
g13
(g17
S'V\xaa\x08\xce\xea\xab\xd9\xbf'
p2535
tp2536
Rp2537
sg46
g13
(g17
S'\xc8\x06\xb2\xd9\x8eo\xad?'
p2538
tp2539
Rp2540
sg50
g13
(g17
S'Om\x00\r\x8b\x85\xde\xbf'
p2541
tp2542
Rp2543
ssS'DONAHUE JR JEFFREY M'
p2544
(dp2545
g3
I865
sg4
g5
sg6
I96268
sg7
I00
sg8
I-300000
sg9
S'jeff.donahue@enron.com'
p2546
sg11
g5
sg12
g13
(g17
S'(*\xf8\x11:\xa2\xb1?'
p2547
tp2548
Rp2549
sg23
g5
sg24
I772
sg25
g5
sg26
I22
sg27
I891
sg28
I142
sg29
g5
sg30
I800000
sg31
I1080988
sg32
I188
sg33
I11
sg34
I315068
sg35
I278601
sg36
I875760
sg37
I765920
sg38
g13
(g17
S'\xd3[,\x11=\xa0\xc3\xbf'
p2550
tp2551
Rp2552
sg42
g13
(g17
S'\x94\x96To2\x9a\xc3?'
p2553
tp2554
Rp2555
sg46
g13
(g17
S'E\r\x98\xa2J\xee\xd0\xbf'
p2556
tp2557
Rp2558
sg50
g13
(g17
S'x\xf8\x17\xcb_\xc4\x10@'
p2559
tp2560
Rp2561
ssS'GLISAN JR BEN F'
p2562
(dp2563
g3
I873
sg4
g5
sg6
I125978
sg7
I01
sg8
g5
sg9
S'ben.glisan@enron.com'
p2564
sg11
I71023
sg12
g13
(g17
S'\xb7\xd7\xf0\xdc\xa1\x90\xc4?'
p2565
tp2566
Rp2567
sg23
g5
sg24
I874
sg25
g5
sg26
I16
sg27
I200308
sg28
I143
sg29
g5
sg30
I600000
sg31
I778546
sg32
I52
sg33
I6
sg34
I393818
sg35
I274975
sg36
I1272284
sg37
I384728
sg38
g13
(g17
S'?-\xba{[\x87\xc5\xbf'
p2568
tp2569
Rp2570
sg42
g13
(g17
S'\xeb\x83\x96\x9d\xcc\xf8\xbc\xbf'
p2571
tp2572
Rp2573
sg46
g13
(g17
S'\xf4[\x06\xd7\xf5N\xd7\xbf'
p2574
tp2575
Rp2576
sg50
g13
(g17
S'\x93#ZY\x94\x84\xf5?'
p2577
tp2578
Rp2579
ss.